libngraph.so.0.22:_Z10make_zerosSt10shared_ptrIN6ngraph4NodeEE
libngraph.so.0.22:_Z11float_isnanRKf
libngraph.so.0.22:_Z19make_broadcast_zeroRKSt10shared_ptrIN6ngraph4NodeEE
libngraph.so.0.22:_Z20set_or_check_if_sameSt10shared_ptrIN6ngraph4NodeEES2_
libngraph.so.0.22:_Z21is_supported_unary_opSt10shared_ptrIN6ngraph4NodeEE
libngraph.so.0.22:_Z22fuse_group_convolutionRKSt10shared_ptrIN6ngraph4NodeEE
libngraph.so.0.22:_Z22is_supported_binary_opSt10shared_ptrIN6ngraph4NodeEE
libngraph.so.0.22:_Z26make_reshape_axes_to_frontRKSt10shared_ptrIN6ngraph4NodeEERKNS0_5ShapeES7_
libngraph.so.0.22:_Z4swimN6ngraph5InputINS_4NodeEEESt10shared_ptrINS_2op7ReshapeEE
libngraph.so.0.22:_ZN6ngraph10descriptor5Input10get_tensorEv
libngraph.so.0.22:_ZN6ngraph10descriptor5Input13remove_outputEv
libngraph.so.0.22:_ZN6ngraph10descriptor5Input14get_tensor_ptrEv
libngraph.so.0.22:_ZN6ngraph10descriptor5Input14replace_outputERNS0_6OutputE
libngraph.so.0.22:_ZN6ngraph10descriptor5Input14replace_outputESt10shared_ptrINS_4NodeEEm
libngraph.so.0.22:_ZN6ngraph10descriptor5InputC1EPNS_4NodeEm
libngraph.so.0.22:_ZN6ngraph10descriptor5InputC1EPNS_4NodeEmRNS0_6OutputE
libngraph.so.0.22:_ZN6ngraph10descriptor5InputC2EPNS_4NodeEm
libngraph.so.0.22:_ZN6ngraph10descriptor5InputC2EPNS_4NodeEmRNS0_6OutputE
libngraph.so.0.22:_ZN6ngraph10descriptor5InputD1Ev
libngraph.so.0.22:_ZN6ngraph10descriptor5InputD2Ev
libngraph.so.0.22:_ZN6ngraph10descriptor6Output12remove_inputEPNS0_5InputE
libngraph.so.0.22:_ZN6ngraph10descriptor6Output9add_inputEPNS0_5InputE
libngraph.so.0.22:_ZN6ngraph10descriptor6OutputC1EPNS_4NodeEmRKSt10shared_ptrINS0_6TensorEE
libngraph.so.0.22:_ZN6ngraph10descriptor6OutputC2EPNS_4NodeEmRKSt10shared_ptrINS0_6TensorEE
libngraph.so.0.22:_ZN6ngraph10descriptor6Tensor15set_pool_offsetEm
libngraph.so.0.22:_ZN6ngraph10descriptor6Tensor15set_tensor_typeERKNS_7element4TypeERKNS_12PartialShapeE
libngraph.so.0.22:_ZN6ngraph10descriptor6Tensor17set_tensor_layoutERKSt10shared_ptrINS0_6layout12TensorLayoutEE
libngraph.so.0.22:_ZN6ngraph10descriptor6TensorC1ERKNS_7element4TypeERKNS_12PartialShapeEPNS_4NodeEm
libngraph.so.0.22:_ZN6ngraph10descriptor6TensorC1ERKNS_7element4TypeERKNS_12PartialShapeERKNSt7__cxx1112basic_stringIcSt11char_traitsIcESaIcEEE
libngraph.so.0.22:_ZN6ngraph10descriptor6TensorC2ERKNS_7element4TypeERKNS_12PartialShapeEPNS_4NodeEm
libngraph.so.0.22:_ZN6ngraph10descriptor6TensorC2ERKNS_7element4TypeERKNS_12PartialShapeERKNSt7__cxx1112basic_stringIcSt11char_traitsIcESaIcEEE
libngraph.so.0.22:_ZN6ngraph10descriptor6layout12TensorLayout18get_allocated_sizeEv
libngraph.so.0.22:_ZN6ngraph10descriptor6layout12TensorLayoutC1ERKNS0_6TensorE
libngraph.so.0.22:_ZN6ngraph10descriptor6layout12TensorLayoutC2ERKNS0_6TensorE
libngraph.so.0.22:_ZN6ngraph10descriptor6layout17DenseTensorLayout16get_index_offsetERKSt6vectorImSaImEE
libngraph.so.0.22:_ZN6ngraph10descriptor6layout17DenseTensorLayoutC1ERKNS0_6TensorE
libngraph.so.0.22:_ZN6ngraph10descriptor6layout17DenseTensorLayoutC2ERKNS0_6TensorE
libngraph.so.0.22:_ZN6ngraph10is_stridedERKNS_7StridesE
libngraph.so.0.22:_ZN6ngraph10plot_graphESt10shared_ptrINS_8FunctionEERKNSt7__cxx1112basic_stringIcSt11char_traitsIcESaIcEEESt8functionIFvRKNS_4NodeERSt6vectorIS8_SaIS8_EEEE
libngraph.so.0.22:_ZN6ngraph11cache_fpropESt10shared_ptrINS_8FunctionEES2_
libngraph.so.0.22:_ZN6ngraph11clone_nodesERKNSt7__cxx114listISt10shared_ptrINS_4NodeEESaIS4_EEERSt13unordered_mapIPS3_S4_St4hashISA_ESt8equal_toISA_ESaISt4pairIKSA_S4_EEE
libngraph.so.0.22:_ZN6ngraph11ngraph_freeEPv
libngraph.so.0.22:_ZN6ngraph12PartialShape10merge_intoERS0_RKS0_
libngraph.so.0.22:_ZN6ngraph12PartialShape10merge_rankENS_9DimensionE
libngraph.so.0.22:_ZN6ngraph12PartialShape20broadcast_merge_intoERS0_RKS0_RKNS_2op17AutoBroadcastSpecE
libngraph.so.0.22:_ZN6ngraph12PartialShape7dynamicENS_9DimensionE
libngraph.so.0.22:_ZN6ngraph12PartialShapeC1ERKNS_5ShapeE
libngraph.so.0.22:_ZN6ngraph12PartialShapeC2ERKNS_5ShapeE
libngraph.so.0.22:_ZN6ngraph12hash_combineERKSt6vectorImSaImEE
libngraph.so.0.22:_ZN6ngraph12inject_pairsINS_12PartialShapeENS_9DimensionEEET_RKS3_St6vectorISt4pairImT0_ESaIS9_EE
libngraph.so.0.22:_ZN6ngraph12parse_stringIdEET_RKNSt7__cxx1112basic_stringIcSt11char_traitsIcESaIcEEE
libngraph.so.0.22:_ZN6ngraph12parse_stringIfEET_RKNSt7__cxx1112basic_stringIcSt11char_traitsIcESaIcEEE
libngraph.so.0.22:_ZN6ngraph12replace_nodeESt10shared_ptrINS_4NodeEES2_
libngraph.so.0.22:_ZN6ngraph13get_timestampB5cxx11Ev
libngraph.so.0.22:_ZN6ngraph13is_valid_rankERKSt10shared_ptrINS_4NodeEESt6vectorImSaImEE
libngraph.so.0.22:_ZN6ngraph13ngraph_mallocEm
libngraph.so.0.22:_ZN6ngraph14clone_functionERKNS_8FunctionE
libngraph.so.0.22:_ZN6ngraph14clone_functionERKNS_8FunctionERSt13unordered_mapIPNS_4NodeESt10shared_ptrIS4_ESt4hashIS5_ESt8equal_toIS5_ESaISt4pairIKS5_S7_EEE
libngraph.so.0.22:_ZN6ngraph14get_outputs_toERNS_4NodeES1_
libngraph.so.0.22:_ZN6ngraph14get_user_countEPNS_4NodeE
libngraph.so.0.22:_ZN6ngraph14traverse_nodesEPKNS_8FunctionESt8functionIFvSt10shared_ptrINS_4NodeEEEEb
libngraph.so.0.22:_ZN6ngraph14traverse_nodesERKSt6vectorISt10shared_ptrINS_4NodeEESaIS3_EESt8functionIFvS3_EEbS7_
libngraph.so.0.22:_ZN6ngraph14traverse_nodesESt10shared_ptrIKNS_8FunctionEESt8functionIFvS0_INS_4NodeEEEEb
libngraph.so.0.22:_ZN6ngraph15get_inputs_fromERNS_4NodeES1_
libngraph.so.0.22:_ZN6ngraph16extract_subgraphERKSt6vectorISt10shared_ptrINS_4NodeEESaIS3_EES7_
libngraph.so.0.22:_ZN6ngraph16find_common_argsESt10shared_ptrINS_4NodeEES2_
libngraph.so.0.22:_ZN6ngraph17apply_permutationINS_10AxisVectorEEET_S2_S1_
libngraph.so.0.22:_ZN6ngraph17apply_permutationINS_10CoordinateEEET_S2_NS_10AxisVectorE
libngraph.so.0.22:_ZN6ngraph17apply_permutationINS_12PartialShapeEEET_S2_NS_10AxisVectorE
libngraph.so.0.22:_ZN6ngraph17apply_permutationINS_14CoordinateDiffEEET_S2_NS_10AxisVectorE
libngraph.so.0.22:_ZN6ngraph17apply_permutationINS_5ShapeEEET_S2_NS_10AxisVectorE
libngraph.so.0.22:_ZN6ngraph17apply_permutationINS_7StridesEEET_S2_NS_10AxisVectorE
libngraph.so.0.22:_ZN6ngraph17compare_constantsERKSt10shared_ptrINS_4NodeEES4_
libngraph.so.0.22:_ZN6ngraph17get_default_orderERKNS_5ShapeE
libngraph.so.0.22:_ZN6ngraph17get_default_orderEm
libngraph.so.0.22:_ZN6ngraph17is_post_dominatedEPNS_4NodeES1_
libngraph.so.0.22:_ZN6ngraph18infer_auto_paddingERKNS_5ShapeES2_RKNS_7StridesES5_NS_2op7PadTypeERNS_14CoordinateDiffES9_
libngraph.so.0.22:_ZN6ngraph18traverse_functionsESt10shared_ptrINS_8FunctionEESt8functionIFvS2_EE
libngraph.so.0.22:_ZN6ngraph19CoordinateTransform15default_paddingEm
libngraph.so.0.22:_ZN6ngraph19CoordinateTransform15default_stridesEm
libngraph.so.0.22:_ZN6ngraph19CoordinateTransform18default_axis_orderEm
libngraph.so.0.22:_ZN6ngraph19CoordinateTransform25default_source_end_cornerERKNS_5ShapeE
libngraph.so.0.22:_ZN6ngraph19CoordinateTransform27default_source_start_cornerEm
libngraph.so.0.22:_ZN6ngraph19CoordinateTransform8IteratorC1ERKNS_5ShapeEb
libngraph.so.0.22:_ZN6ngraph19CoordinateTransform8IteratorC2ERKNS_5ShapeEb
libngraph.so.0.22:_ZN6ngraph19CoordinateTransform8IteratoreqERKS1_
libngraph.so.0.22:_ZN6ngraph19CoordinateTransform8IteratorneERKS1_
libngraph.so.0.22:_ZN6ngraph19CoordinateTransform8IteratorpLEm
libngraph.so.0.22:_ZN6ngraph19CoordinateTransform8IteratorppEi
libngraph.so.0.22:_ZN6ngraph19CoordinateTransform8IteratorppEv
libngraph.so.0.22:_ZN6ngraph19CoordinateTransformC1ERKNS_5ShapeE
libngraph.so.0.22:_ZN6ngraph19CoordinateTransformC1ERKNS_5ShapeERKNS_10CoordinateES6_
libngraph.so.0.22:_ZN6ngraph19CoordinateTransformC1ERKNS_5ShapeERKNS_10CoordinateES6_RKNS_7StridesE
libngraph.so.0.22:_ZN6ngraph19CoordinateTransformC1ERKNS_5ShapeERKNS_10CoordinateES6_RKNS_7StridesERKNS_10AxisVectorE
libngraph.so.0.22:_ZN6ngraph19CoordinateTransformC1ERKNS_5ShapeERKNS_10CoordinateES6_RKNS_7StridesERKNS_10AxisVectorERKNS_14CoordinateDiffESF_
libngraph.so.0.22:_ZN6ngraph19CoordinateTransformC1ERKNS_5ShapeERKNS_10CoordinateES6_RKNS_7StridesERKNS_10AxisVectorERKNS_14CoordinateDiffESF_S9_
libngraph.so.0.22:_ZN6ngraph19CoordinateTransformC2ERKNS_5ShapeE
libngraph.so.0.22:_ZN6ngraph19CoordinateTransformC2ERKNS_5ShapeERKNS_10CoordinateES6_
libngraph.so.0.22:_ZN6ngraph19CoordinateTransformC2ERKNS_5ShapeERKNS_10CoordinateES6_RKNS_7StridesE
libngraph.so.0.22:_ZN6ngraph19CoordinateTransformC2ERKNS_5ShapeERKNS_10CoordinateES6_RKNS_7StridesERKNS_10AxisVectorE
libngraph.so.0.22:_ZN6ngraph19CoordinateTransformC2ERKNS_5ShapeERKNS_10CoordinateES6_RKNS_7StridesERKNS_10AxisVectorERKNS_14CoordinateDiffESF_
libngraph.so.0.22:_ZN6ngraph19CoordinateTransformC2ERKNS_5ShapeERKNS_10CoordinateES6_RKNS_7StridesERKNS_10AxisVectorERKNS_14CoordinateDiffESF_S9_
libngraph.so.0.22:_ZN6ngraph19placement_to_stringB5cxx11ENS_9PlacementE
libngraph.so.0.22:_ZN6ngraph19specialize_functionESt10shared_ptrINS_8FunctionEERKSt6vectorINS_7element4TypeESaIS5_EERKS3_INS_12PartialShapeESaISA_EERKS3_IPvSaISF_EE
libngraph.so.0.22:_ZN6ngraph20conv_default_paddingEPKNS_4NodeERKNS_12PartialShapeES5_
libngraph.so.0.22:_ZN6ngraph20conv_default_stridesEPKNS_4NodeERKNS_12PartialShapeES5_
libngraph.so.0.22:_ZN6ngraph20get_subgraph_outputsERKSt6vectorISt10shared_ptrINS_4NodeEESaIS3_EES7_b
libngraph.so.0.22:_ZN6ngraph20is_valid_permutationENS_10AxisVectorENS_9DimensionE
libngraph.so.0.22:_ZN6ngraph20possibly_overwrittenEPNS_4NodeE
libngraph.so.0.22:_ZN6ngraph21check_fp_values_isinfEPKcPKdm
libngraph.so.0.22:_ZN6ngraph21check_fp_values_isinfEPKcPKfm
libngraph.so.0.22:_ZN6ngraph21check_fp_values_isnanEPKcPKdm
libngraph.so.0.22:_ZN6ngraph21check_fp_values_isnanEPKcPKfm
libngraph.so.0.22:_ZN6ngraph21numpy_transpose_errorERKNS_10AxisVectorERKNS_5ShapeE
libngraph.so.0.22:_ZN6ngraph22get_provenance_enabledEv
libngraph.so.0.22:_ZN6ngraph22set_provenance_enabledEb
libngraph.so.0.22:_ZN6ngraph23check_single_output_argERKSt10shared_ptrINS_4NodeEEm
libngraph.so.0.22:_ZN6ngraph23insert_new_node_betweenERKSt10shared_ptrINS_4NodeEES4_S4_
libngraph.so.0.22:_ZN6ngraph23is_equal_to_const_valueENSt7__cxx1112basic_stringIcSt11char_traitsIcESaIcEEESt10shared_ptrINS_4NodeEE
libngraph.so.0.22:_ZN6ngraph24check_single_output_argsERKSt6vectorISt10shared_ptrINS_4NodeEESaIS3_EE
libngraph.so.0.22:_ZN6ngraph24infer_batch_norm_forwardEPKNS_4NodeENS_7element4TypeES4_S4_RKNS_12PartialShapeES7_S7_
libngraph.so.0.22:_ZN6ngraph24infer_batch_norm_forwardEPKNS_4NodeENS_7element4TypeES4_S4_S4_S4_RKNS_12PartialShapeES7_S7_S7_S7_
libngraph.so.0.22:_ZN6ngraph25get_distributed_interfaceEv
libngraph.so.0.22:_ZN6ngraph25infer_convolution_forwardEPKNS_4NodeENS_7element4TypeES4_RKNS_12PartialShapeERKNS_7StridesERKNS_14CoordinateDiffESD_S7_SA_SA_
libngraph.so.0.22:_ZN6ngraph25make_constant_from_stringENSt7__cxx1112basic_stringIcSt11char_traitsIcESaIcEEERKNS_7element4TypeERKNS_5ShapeE
libngraph.so.0.22:_ZN6ngraph25set_distributed_interfaceESt10unique_ptrINS_20DistributedInterfaceESt14default_deleteIS1_EE
libngraph.so.0.22:_ZN6ngraph27default_logger_handler_funcERKNSt7__cxx1112basic_stringIcSt11char_traitsIcESaIcEEE
libngraph.so.0.22:_ZN6ngraph29infer_batched_pooling_forwardEPKNS_4NodeERKNS_12PartialShapeERKNS_14CoordinateDiffES8_S5_RKNS_7StridesEbb
libngraph.so.0.22:_ZN6ngraph29insert_result_parameter_splitERKSt10shared_ptrINS_4NodeEES4_
libngraph.so.0.22:_ZN6ngraph2op10Dequantize17generate_adjointsERNS_8autodiff8AdjointsERKSt6vectorISt10shared_ptrINS_4NodeEESaIS8_EE
libngraph.so.0.22:_ZN6ngraph2op10Dequantize24validate_and_infer_typesEv
libngraph.so.0.22:_ZN6ngraph2op10DequantizeC1ERKSt10shared_ptrINS_4NodeEES6_S6_RKNS_7element4TypeERKNS_7AxisSetE
libngraph.so.0.22:_ZN6ngraph2op10DequantizeC2ERKSt10shared_ptrINS_4NodeEES6_S6_RKNS_7element4TypeERKNS_7AxisSetE
libngraph.so.0.22:_ZN6ngraph2op10DynReshape17generate_adjointsERNS_8autodiff8AdjointsERKSt6vectorISt10shared_ptrINS_4NodeEESaIS8_EE
libngraph.so.0.22:_ZN6ngraph2op10DynReshape24validate_and_infer_typesEv
libngraph.so.0.22:_ZN6ngraph2op10DynReshapeC1ERKSt10shared_ptrINS_4NodeEES6_b
libngraph.so.0.22:_ZN6ngraph2op10DynReshapeC2ERKSt10shared_ptrINS_4NodeEES6_b
libngraph.so.0.22:_ZN6ngraph2op10ROIPooling24validate_and_infer_typesEv
libngraph.so.0.22:_ZN6ngraph2op10ROIPoolingC1ERKSt10shared_ptrINS_4NodeEES6_RKNS_5ShapeEfRKNSt7__cxx1112basic_stringIcSt11char_traitsIcESaIcEEE
libngraph.so.0.22:_ZN6ngraph2op10ROIPoolingC2ERKSt10shared_ptrINS_4NodeEES6_RKNS_5ShapeEfRKNSt7__cxx1112basic_stringIcSt11char_traitsIcESaIcEEE
libngraph.so.0.22:_ZN6ngraph2op10RegionYolo24validate_and_infer_typesEv
libngraph.so.0.22:_ZN6ngraph2op10RegionYoloC1ERKSt10shared_ptrINS_4NodeEEmmmbRKSt6vectorIlSaIlEEii
libngraph.so.0.22:_ZN6ngraph2op10RegionYoloC2ERKSt10shared_ptrINS_4NodeEEmmmbRKSt6vectorIlSaIlEEii
libngraph.so.0.22:_ZN6ngraph2op10ScaleShiftC1ERKSt10shared_ptrINS_4NodeEES6_S6_
libngraph.so.0.22:_ZN6ngraph2op10ScaleShiftC2ERKSt10shared_ptrINS_4NodeEES6_S6_
libngraph.so.0.22:_ZN6ngraph2op10ScatterAdd24validate_and_infer_typesEv
libngraph.so.0.22:_ZN6ngraph2op11BatchMatMul17generate_adjointsERNS_8autodiff8AdjointsERKSt6vectorISt10shared_ptrINS_4NodeEESaIS8_EE
libngraph.so.0.22:_ZN6ngraph2op11BatchMatMul24validate_and_infer_typesEv
libngraph.so.0.22:_ZN6ngraph2op11BatchMatMulC1ERKSt10shared_ptrINS_4NodeEES6_
libngraph.so.0.22:_ZN6ngraph2op11BatchMatMulC2ERKSt10shared_ptrINS_4NodeEES6_
libngraph.so.0.22:_ZN6ngraph2op11Convolution17generate_adjointsERNS_8autodiff8AdjointsERKSt6vectorISt10shared_ptrINS_4NodeEESaIS8_EE
libngraph.so.0.22:_ZN6ngraph2op11Convolution24validate_and_infer_typesEv
libngraph.so.0.22:_ZN6ngraph2op11ConvolutionC1ERKSt10shared_ptrINS_4NodeEES6_
libngraph.so.0.22:_ZN6ngraph2op11ConvolutionC1ERKSt10shared_ptrINS_4NodeEES6_RKNS_7StridesE
libngraph.so.0.22:_ZN6ngraph2op11ConvolutionC1ERKSt10shared_ptrINS_4NodeEES6_RKNS_7StridesES9_
libngraph.so.0.22:_ZN6ngraph2op11ConvolutionC1ERKSt10shared_ptrINS_4NodeEES6_RKNS_7StridesES9_RKNS_14CoordinateDiffESC_
libngraph.so.0.22:_ZN6ngraph2op11ConvolutionC1ERKSt10shared_ptrINS_4NodeEES6_RKNS_7StridesES9_RKNS_14CoordinateDiffESC_S9_RKNS0_7PadTypeE
libngraph.so.0.22:_ZN6ngraph2op11ConvolutionC2ERKSt10shared_ptrINS_4NodeEES6_
libngraph.so.0.22:_ZN6ngraph2op11ConvolutionC2ERKSt10shared_ptrINS_4NodeEES6_RKNS_7StridesE
libngraph.so.0.22:_ZN6ngraph2op11ConvolutionC2ERKSt10shared_ptrINS_4NodeEES6_RKNS_7StridesES9_
libngraph.so.0.22:_ZN6ngraph2op11ConvolutionC2ERKSt10shared_ptrINS_4NodeEES6_RKNS_7StridesES9_RKNS_14CoordinateDiffESC_
libngraph.so.0.22:_ZN6ngraph2op11ConvolutionC2ERKSt10shared_ptrINS_4NodeEES6_RKNS_7StridesES9_RKNS_14CoordinateDiffESC_S9_RKNS0_7PadTypeE
libngraph.so.0.22:_ZN6ngraph2op11HardSigmoidC1ERKSt10shared_ptrINS_4NodeEEff
libngraph.so.0.22:_ZN6ngraph2op11HardSigmoidC2ERKSt10shared_ptrINS_4NodeEEff
libngraph.so.0.22:_ZN6ngraph2op11Interpolate24validate_and_infer_typesEv
libngraph.so.0.22:_ZN6ngraph2op11InterpolateC1ERKSt10shared_ptrINS_4NodeEES6_RKNS0_16InterpolateAttrsE
libngraph.so.0.22:_ZN6ngraph2op11InterpolateC2ERKSt10shared_ptrINS_4NodeEES6_RKNS0_16InterpolateAttrsE
libngraph.so.0.22:_ZN6ngraph2op11Passthrough24validate_and_infer_typesEv
libngraph.so.0.22:_ZN6ngraph2op11PassthroughC1ERKNSt7__cxx1112basic_stringIcSt11char_traitsIcESaIcEEES9_S9_RKSt6vectorISt10shared_ptrINS_4NodeEESaISD_EESA_ISt5tupleIJNS_7element4TypeENS_12PartialShapeEEESaISM_EE
libngraph.so.0.22:_ZN6ngraph2op11PassthroughC2ERKNSt7__cxx1112basic_stringIcSt11char_traitsIcESaIcEEES9_S9_RKSt6vectorISt10shared_ptrINS_4NodeEESaISD_EESA_ISt5tupleIJNS_7element4TypeENS_12PartialShapeEEESaISM_EE
libngraph.so.0.22:_ZN6ngraph2op12DepthToSpaceC1ERKSt10shared_ptrINS_4NodeEEm
libngraph.so.0.22:_ZN6ngraph2op12DepthToSpaceC2ERKSt10shared_ptrINS_4NodeEEm
libngraph.so.0.22:_ZN6ngraph2op12DynBroadcast17generate_adjointsERNS_8autodiff8AdjointsERKSt6vectorISt10shared_ptrINS_4NodeEESaIS8_EE
libngraph.so.0.22:_ZN6ngraph2op12DynBroadcast24validate_and_infer_typesEv
libngraph.so.0.22:_ZN6ngraph2op12DynBroadcastC1ERKSt10shared_ptrINS_4NodeEES6_S6_
libngraph.so.0.22:_ZN6ngraph2op12DynBroadcastC2ERKSt10shared_ptrINS_4NodeEES6_S6_
libngraph.so.0.22:_ZN6ngraph2op12FakeQuantize28pre_validate_and_infer_typesEv
libngraph.so.0.22:_ZN6ngraph2op12FakeQuantizeC1ERKSt10shared_ptrINS_4NodeEES6_S6_S6_S6_m
libngraph.so.0.22:_ZN6ngraph2op12FakeQuantizeC2ERKSt10shared_ptrINS_4NodeEES6_S6_S6_S6_m
libngraph.so.0.22:_ZN6ngraph2op12GenerateMask24validate_and_infer_typesEv
libngraph.so.0.22:_ZN6ngraph2op12GenerateMaskC1ERKNS_6OutputINS_4NodeEEERKNS_5ShapeERKNS_7element4TypeEmdb
libngraph.so.0.22:_ZN6ngraph2op12GenerateMaskC1Ev
libngraph.so.0.22:_ZN6ngraph2op12GenerateMaskC2ERKNS_6OutputINS_4NodeEEERKNS_5ShapeERKNS_7element4TypeEmdb
libngraph.so.0.22:_ZN6ngraph2op12GenerateMaskC2Ev
libngraph.so.0.22:_ZN6ngraph2op12PSROIPooling24validate_and_infer_typesEv
libngraph.so.0.22:_ZN6ngraph2op12PSROIPoolingC1ERKSt10shared_ptrINS_4NodeEES6_mmfRKNS_5ShapeERKNSt7__cxx1112basic_stringIcSt11char_traitsIcESaIcEEE
libngraph.so.0.22:_ZN6ngraph2op12PSROIPoolingC2ERKSt10shared_ptrINS_4NodeEES6_mmfRKNS_5ShapeERKNSt7__cxx1112basic_stringIcSt11char_traitsIcESaIcEEE
libngraph.so.0.22:_ZN6ngraph2op12QuantizedDotC1ERKSt10shared_ptrINS_4NodeEES6_S6_bb
libngraph.so.0.22:_ZN6ngraph2op12QuantizedDotC2ERKSt10shared_ptrINS_4NodeEES6_S6_bb
libngraph.so.0.22:_ZN6ngraph2op12ReluBackpropC1ESt10shared_ptrINS_4NodeEES4_
libngraph.so.0.22:_ZN6ngraph2op12ReluBackpropC2ESt10shared_ptrINS_4NodeEES4_
libngraph.so.0.22:_ZN6ngraph2op12ReplaceSlice17generate_adjointsERNS_8autodiff8AdjointsERKSt6vectorISt10shared_ptrINS_4NodeEESaIS8_EE
libngraph.so.0.22:_ZN6ngraph2op12ReplaceSlice24validate_and_infer_typesEv
libngraph.so.0.22:_ZN6ngraph2op12ReplaceSliceC1ERKSt10shared_ptrINS_4NodeEES6_RKNS_10CoordinateES9_
libngraph.so.0.22:_ZN6ngraph2op12ReplaceSliceC1ERKSt10shared_ptrINS_4NodeEES6_RKNS_10CoordinateES9_RKNS_7StridesE
libngraph.so.0.22:_ZN6ngraph2op12ReplaceSliceC2ERKSt10shared_ptrINS_4NodeEES6_RKNS_10CoordinateES9_
libngraph.so.0.22:_ZN6ngraph2op12ReplaceSliceC2ERKSt10shared_ptrINS_4NodeEES6_RKNS_10CoordinateES9_RKNS_7StridesE
libngraph.so.0.22:_ZN6ngraph2op12ScatterNDAdd24validate_and_infer_typesEv
libngraph.so.0.22:_ZN6ngraph2op12SpaceToDepthC1ERKSt10shared_ptrINS_4NodeEEm
libngraph.so.0.22:_ZN6ngraph2op12SpaceToDepthC2ERKSt10shared_ptrINS_4NodeEEm
libngraph.so.0.22:_ZN6ngraph2op12StopGradientC1ERKSt10shared_ptrINS_4NodeEE
libngraph.so.0.22:_ZN6ngraph2op12StopGradientC2ERKSt10shared_ptrINS_4NodeEE
libngraph.so.0.22:_ZN6ngraph2op13BroadcastLike11infer_shapeEv
libngraph.so.0.22:_ZN6ngraph2op13BroadcastLikeC1ERKSt10shared_ptrINS_4NodeEES6_RKNS_7AxisSetE
libngraph.so.0.22:_ZN6ngraph2op13BroadcastLikeC2ERKSt10shared_ptrINS_4NodeEES6_RKNS_7AxisSetE
libngraph.so.0.22:_ZN6ngraph2op15AvgPoolBackprop16set_window_shapeERKNS_5ShapeE
libngraph.so.0.22:_ZN6ngraph2op15AvgPoolBackprop17set_padding_aboveERKNS_5ShapeE
libngraph.so.0.22:_ZN6ngraph2op15AvgPoolBackprop17set_padding_belowERKNS_5ShapeE
libngraph.so.0.22:_ZN6ngraph2op15AvgPoolBackprop21set_forward_arg_shapeERKNS_5ShapeE
libngraph.so.0.22:_ZN6ngraph2op15AvgPoolBackprop24validate_and_infer_typesEv
libngraph.so.0.22:_ZN6ngraph2op15AvgPoolBackprop27set_window_movement_stridesERKNS_7StridesE
libngraph.so.0.22:_ZN6ngraph2op15AvgPoolBackprop38set_include_padding_in_avg_computationEb
libngraph.so.0.22:_ZN6ngraph2op15AvgPoolBackpropC1ERKNS_5ShapeERKSt10shared_ptrINS_4NodeEES4_RKNS_7StridesES4_S4_b
libngraph.so.0.22:_ZN6ngraph2op15AvgPoolBackpropC1Ev
libngraph.so.0.22:_ZN6ngraph2op15AvgPoolBackpropC2ERKNS_5ShapeERKSt10shared_ptrINS_4NodeEES4_RKNS_7StridesES4_S4_b
libngraph.so.0.22:_ZN6ngraph2op15AvgPoolBackpropC2Ev
libngraph.so.0.22:_ZN6ngraph2op15ConvolutionBias17generate_adjointsERNS_8autodiff8AdjointsERKSt6vectorISt10shared_ptrINS_4NodeEESaIS8_EE
libngraph.so.0.22:_ZN6ngraph2op15ConvolutionBias24validate_and_infer_typesEv
libngraph.so.0.22:_ZN6ngraph2op15ConvolutionBiasC1ERKSt10shared_ptrINS0_11ConvolutionEERKS2_INS_4NodeEEb
libngraph.so.0.22:_ZN6ngraph2op15ConvolutionBiasC1ERKSt10shared_ptrINS_4NodeEES6_S6_
libngraph.so.0.22:_ZN6ngraph2op15ConvolutionBiasC1ERKSt10shared_ptrINS_4NodeEES6_S6_RKNS_7StridesES9_RKNS_14CoordinateDiffESC_S9_b
libngraph.so.0.22:_ZN6ngraph2op15ConvolutionBiasC2ERKSt10shared_ptrINS0_11ConvolutionEERKS2_INS_4NodeEEb
libngraph.so.0.22:_ZN6ngraph2op15ConvolutionBiasC2ERKSt10shared_ptrINS_4NodeEES6_S6_
libngraph.so.0.22:_ZN6ngraph2op15ConvolutionBiasC2ERKSt10shared_ptrINS_4NodeEES6_S6_RKNS_7StridesES9_RKNS_14CoordinateDiffESC_S9_b
libngraph.so.0.22:_ZN6ngraph2op15DetectionOutput24validate_and_infer_typesEv
libngraph.so.0.22:_ZN6ngraph2op15DetectionOutputC1ERKSt10shared_ptrINS_4NodeEES6_S6_S6_S6_RKNS0_20DetectionOutputAttrsE
libngraph.so.0.22:_ZN6ngraph2op15DetectionOutputC2ERKSt10shared_ptrINS_4NodeEES6_S6_S6_S6_RKNS0_20DetectionOutputAttrsE
libngraph.so.0.22:_ZN6ngraph2op15EmbeddingLookup24validate_and_infer_typesEv
libngraph.so.0.22:_ZN6ngraph2op15MaxPoolBackprop24validate_and_infer_typesEv
libngraph.so.0.22:_ZN6ngraph2op15MaxPoolBackpropC1ERKSt10shared_ptrINS_4NodeEES6_RKNS_5ShapeERKNS_7StridesES9_S9_
libngraph.so.0.22:_ZN6ngraph2op15MaxPoolBackpropC1ERKSt10shared_ptrINS_4NodeEES6_S6_RKNS_5ShapeERKNS_7StridesES9_S9_
libngraph.so.0.22:_ZN6ngraph2op15MaxPoolBackpropC2ERKSt10shared_ptrINS_4NodeEES6_RKNS_5ShapeERKNS_7StridesES9_S9_
libngraph.so.0.22:_ZN6ngraph2op15MaxPoolBackpropC2ERKSt10shared_ptrINS_4NodeEES6_S6_RKNS_5ShapeERKNS_7StridesES9_S9_
libngraph.so.0.22:_ZN6ngraph2op15QuantizedConcat24validate_and_infer_typesEv
libngraph.so.0.22:_ZN6ngraph2op15QuantizedConcatC1ERKSt6vectorISt10shared_ptrINS_4NodeEESaIS5_EEm
libngraph.so.0.22:_ZN6ngraph2op15QuantizedConcatC2ERKSt6vectorISt10shared_ptrINS_4NodeEESaIS5_EEm
libngraph.so.0.22:_ZN6ngraph2op15ReverseSequence17generate_adjointsERNS_8autodiff8AdjointsERKSt6vectorISt10shared_ptrINS_4NodeEESaIS8_EE
libngraph.so.0.22:_ZN6ngraph2op15ReverseSequence24validate_and_infer_typesEv
libngraph.so.0.22:_ZN6ngraph2op15ReverseSequenceC1ESt10shared_ptrINS_4NodeEES4_mm
libngraph.so.0.22:_ZN6ngraph2op15ReverseSequenceC2ESt10shared_ptrINS_4NodeEES4_mm
libngraph.so.0.22:_ZN6ngraph2op15ShuffleChannels28pre_validate_and_infer_typesEv
libngraph.so.0.22:_ZN6ngraph2op15ShuffleChannelsC1ERKSt10shared_ptrINS_4NodeEEim
libngraph.so.0.22:_ZN6ngraph2op15ShuffleChannelsC2ERKSt10shared_ptrINS_4NodeEEim
libngraph.so.0.22:_ZN6ngraph2op15SigmoidBackpropC1ESt10shared_ptrINS_4NodeEES4_
libngraph.so.0.22:_ZN6ngraph2op15SigmoidBackpropC2ESt10shared_ptrINS_4NodeEES4_
libngraph.so.0.22:_ZN6ngraph2op16CTCGreedyDecoder24validate_and_infer_typesEv
libngraph.so.0.22:_ZN6ngraph2op16CTCGreedyDecoderC1ERKSt10shared_ptrINS_4NodeEES6_b
libngraph.so.0.22:_ZN6ngraph2op16CTCGreedyDecoderC2ERKSt10shared_ptrINS_4NodeEES6_b
libngraph.so.0.22:_ZN6ngraph2op16GetOutputElement17generate_adjointsERNS_8autodiff8AdjointsERKSt6vectorISt10shared_ptrINS_4NodeEESaIS8_EE
libngraph.so.0.22:_ZN6ngraph2op16GetOutputElement24validate_and_infer_typesEv
libngraph.so.0.22:_ZN6ngraph2op16GetOutputElementC1ERKSt10shared_ptrINS_4NodeEEm
libngraph.so.0.22:_ZN6ngraph2op16GetOutputElementC2ERKSt10shared_ptrINS_4NodeEEm
libngraph.so.0.22:_ZN6ngraph2op16GroupConvolution17generate_adjointsERNS_8autodiff8AdjointsERKSt6vectorISt10shared_ptrINS_4NodeEESaIS8_EE
libngraph.so.0.22:_ZN6ngraph2op16GroupConvolution28pre_validate_and_infer_typesEv
libngraph.so.0.22:_ZN6ngraph2op16GroupConvolution29post_validate_and_infer_typesEv
libngraph.so.0.22:_ZN6ngraph2op16GroupConvolutionC1ERKSt10shared_ptrINS_4NodeEES6_RKNS_7StridesES9_RKNS_14CoordinateDiffESC_S9_mRKNS0_7PadTypeE
libngraph.so.0.22:_ZN6ngraph2op16GroupConvolutionC2ERKSt10shared_ptrINS_4NodeEES6_RKNS_7StridesES9_RKNS_14CoordinateDiffESC_S9_mRKNS0_7PadTypeE
libngraph.so.0.22:_ZN6ngraph2op16QuantizedAvgPool24validate_and_infer_typesEv
libngraph.so.0.22:_ZN6ngraph2op16QuantizedAvgPoolC1ERKSt10shared_ptrINS_4NodeEERKNS_5ShapeERKNS_7StridesES9_S9_b
libngraph.so.0.22:_ZN6ngraph2op16QuantizedAvgPoolC2ERKSt10shared_ptrINS_4NodeEERKNS_5ShapeERKNS_7StridesES9_S9_b
libngraph.so.0.22:_ZN6ngraph2op16QuantizedDotBiasC1ERKSt10shared_ptrINS_4NodeEES6_S6_S6_bb
libngraph.so.0.22:_ZN6ngraph2op16QuantizedDotBiasC2ERKSt10shared_ptrINS_4NodeEES6_S6_S6_bb
libngraph.so.0.22:_ZN6ngraph2op16QuantizedMaxPool24validate_and_infer_typesEv
libngraph.so.0.22:_ZN6ngraph2op16QuantizedMaxPoolC1ERKSt10shared_ptrINS_4NodeEERKNS_5ShapeERKNS_7StridesES9_S9_
libngraph.so.0.22:_ZN6ngraph2op16QuantizedMaxPoolC2ERKSt10shared_ptrINS_4NodeEERKNS_5ShapeERKNS_7StridesES9_S9_
libngraph.so.0.22:_ZN6ngraph2op17BatchNormTraining17generate_adjointsERNS_8autodiff8AdjointsERKSt6vectorISt10shared_ptrINS_4NodeEESaIS8_EE
libngraph.so.0.22:_ZN6ngraph2op17BatchNormTraining24validate_and_infer_typesEv
libngraph.so.0.22:_ZN6ngraph2op17BatchNormTrainingC1ESt10shared_ptrINS_4NodeEES4_S4_d
libngraph.so.0.22:_ZN6ngraph2op17BatchNormTrainingC1EdSt10shared_ptrINS_4NodeEES4_S4_
libngraph.so.0.22:_ZN6ngraph2op17BatchNormTrainingC2ESt10shared_ptrINS_4NodeEES4_S4_d
libngraph.so.0.22:_ZN6ngraph2op17BatchNormTrainingC2EdSt10shared_ptrINS_4NodeEES4_S4_
libngraph.so.0.22:_ZN6ngraph2op17PriorBoxClustered24validate_and_infer_typesEv
libngraph.so.0.22:_ZN6ngraph2op17PriorBoxClusteredC1ERKSt10shared_ptrINS_4NodeEES6_RKNS0_22PriorBoxClusteredAttrsE
libngraph.so.0.22:_ZN6ngraph2op17PriorBoxClusteredC2ERKSt10shared_ptrINS_4NodeEES6_RKNS0_22PriorBoxClusteredAttrsE
libngraph.so.0.22:_ZN6ngraph2op17SquaredDifferenceC1ERKSt10shared_ptrINS_4NodeEES6_
libngraph.so.0.22:_ZN6ngraph2op17SquaredDifferenceC2ERKSt10shared_ptrINS_4NodeEES6_
libngraph.so.0.22:_ZN6ngraph2op18BatchNormInference24validate_and_infer_typesEv
libngraph.so.0.22:_ZN6ngraph2op18BatchNormInferenceC1ESt10shared_ptrINS_4NodeEES4_S4_S4_S4_d
libngraph.so.0.22:_ZN6ngraph2op18BatchNormInferenceC1EdSt10shared_ptrINS_4NodeEES4_S4_S4_S4_
libngraph.so.0.22:_ZN6ngraph2op18BatchNormInferenceC2ESt10shared_ptrINS_4NodeEES4_S4_S4_S4_d
libngraph.so.0.22:_ZN6ngraph2op18BatchNormInferenceC2EdSt10shared_ptrINS_4NodeEES4_S4_S4_S4_
libngraph.so.0.22:_ZN6ngraph2op18ConvolutionBiasAdd24validate_and_infer_typesEv
libngraph.so.0.22:_ZN6ngraph2op18ConvolutionBiasAddC1ERKSt10shared_ptrINS0_15ConvolutionBiasEERKS2_INS_4NodeEEb
libngraph.so.0.22:_ZN6ngraph2op18ConvolutionBiasAddC1ERKSt10shared_ptrINS_4NodeEES6_S6_S6_RKNS_7StridesES9_RKNS_14CoordinateDiffESC_S9_b
libngraph.so.0.22:_ZN6ngraph2op18ConvolutionBiasAddC2ERKSt10shared_ptrINS0_15ConvolutionBiasEERKS2_INS_4NodeEEb
libngraph.so.0.22:_ZN6ngraph2op18ConvolutionBiasAddC2ERKSt10shared_ptrINS_4NodeEES6_S6_S6_RKNS_7StridesES9_RKNS_14CoordinateDiffESC_S9_b
libngraph.so.0.22:_ZN6ngraph2op18ScalarConstantLike18infer_element_typeEv
libngraph.so.0.22:_ZN6ngraph2op19get_output_elementsERKSt10shared_ptrINS_4NodeEE
libngraph.so.0.22:_ZN6ngraph2op20BroadcastDistributed24validate_and_infer_typesEv
libngraph.so.0.22:_ZN6ngraph2op20BroadcastDistributedC1ERKSt10shared_ptrINS_4NodeEEi
libngraph.so.0.22:_ZN6ngraph2op20BroadcastDistributedC2ERKSt10shared_ptrINS_4NodeEEi
libngraph.so.0.22:_ZN6ngraph2op20QuantizedConvolutionC1ERKSt10shared_ptrINS_4NodeEES6_RKNS_7StridesES9_RKNS_14CoordinateDiffESC_S9_S6_b
libngraph.so.0.22:_ZN6ngraph2op20QuantizedConvolutionC2ERKSt10shared_ptrINS_4NodeEES6_RKNS_7StridesES9_RKNS_14CoordinateDiffESC_S9_S6_b
libngraph.so.0.22:_ZN6ngraph2op21numpy_style_broadcastERKSt10shared_ptrINS_4NodeEERKNS_5ShapeE
libngraph.so.0.22:_ZN6ngraph2op21numpy_style_broadcastERKSt6vectorISt10shared_ptrINS_4NodeEESaIS4_EE
libngraph.so.0.22:_ZN6ngraph2op23ConvolutionBackpropData17generate_adjointsERNS_8autodiff8AdjointsERKSt6vectorISt10shared_ptrINS_4NodeEESaIS8_EE
libngraph.so.0.22:_ZN6ngraph2op23ConvolutionBackpropData24validate_and_infer_typesEv
libngraph.so.0.22:_ZN6ngraph2op23ConvolutionBackpropDataC1ERKNS_5ShapeERKSt10shared_ptrINS_4NodeEES9_RKNS_7StridesESC_RKNS_14CoordinateDiffESF_SC_
libngraph.so.0.22:_ZN6ngraph2op23ConvolutionBackpropDataC2ERKNS_5ShapeERKSt10shared_ptrINS_4NodeEES9_RKNS_7StridesESC_RKNS_14CoordinateDiffESF_SC_
libngraph.so.0.22:_ZN6ngraph2op24QuantizedConvolutionBiasC1ERKSt10shared_ptrINS_4NodeEES6_S6_RKNS_7StridesES9_RKNS_14CoordinateDiffESC_S9_S6_b
libngraph.so.0.22:_ZN6ngraph2op24QuantizedConvolutionBiasC2ERKSt10shared_ptrINS_4NodeEES6_S6_RKNS_7StridesES9_RKNS_14CoordinateDiffESC_S9_S6_b
libngraph.so.0.22:_ZN6ngraph2op24QuantizedConvolutionReluC1ERKSt10shared_ptrINS_4NodeEES6_RKNS_7StridesES9_RKNS_14CoordinateDiffESC_S9_S6_
libngraph.so.0.22:_ZN6ngraph2op24QuantizedConvolutionReluC2ERKSt10shared_ptrINS_4NodeEES6_RKNS_7StridesES9_RKNS_14CoordinateDiffESC_S9_S6_
libngraph.so.0.22:_ZN6ngraph2op24calculate_broadcast_axesERKNS_5ShapeES3_m
libngraph.so.0.22:_ZN6ngraph2op25BatchNormTrainingBackprop24validate_and_infer_typesEv
libngraph.so.0.22:_ZN6ngraph2op25BatchNormTrainingBackpropC1ESt10shared_ptrINS_4NodeEES4_S4_S4_S4_S4_d
libngraph.so.0.22:_ZN6ngraph2op25BatchNormTrainingBackpropC1EdSt10shared_ptrINS_4NodeEES4_S4_S4_S4_S4_
libngraph.so.0.22:_ZN6ngraph2op25BatchNormTrainingBackpropC2ESt10shared_ptrINS_4NodeEES4_S4_S4_S4_S4_d
libngraph.so.0.22:_ZN6ngraph2op25BatchNormTrainingBackpropC2EdSt10shared_ptrINS_4NodeEES4_S4_S4_S4_S4_
libngraph.so.0.22:_ZN6ngraph2op26ConvolutionBackpropFilters24validate_and_infer_typesEv
libngraph.so.0.22:_ZN6ngraph2op26ConvolutionBackpropFiltersC1ERKSt10shared_ptrINS_4NodeEERKNS_5ShapeES6_RKNS_7StridesESC_RKNS_14CoordinateDiffESF_SC_
libngraph.so.0.22:_ZN6ngraph2op26ConvolutionBackpropFiltersC2ERKSt10shared_ptrINS_4NodeEERKNS_5ShapeES6_RKNS_7StridesESC_RKNS_14CoordinateDiffESF_SC_
libngraph.so.0.22:_ZN6ngraph2op27QuantizedConvolutionBiasAddC1ERKSt10shared_ptrINS_4NodeEES6_S6_S6_RKNS_7StridesES9_RKNS_14CoordinateDiffESC_S9_S6_S6_b
libngraph.so.0.22:_ZN6ngraph2op27QuantizedConvolutionBiasAddC2ERKSt10shared_ptrINS_4NodeEES6_S6_S6_RKNS_7StridesES9_RKNS_14CoordinateDiffESC_S9_S6_S6_b
libngraph.so.0.22:_ZN6ngraph2op2OpC1ERKNSt7__cxx1112basic_stringIcSt11char_traitsIcESaIcEEERKSt6vectorISt10shared_ptrINS_4NodeEESaISD_EE
libngraph.so.0.22:_ZN6ngraph2op2OpC1ERKSt6vectorINS_6OutputINS_4NodeEEESaIS5_EE
libngraph.so.0.22:_ZN6ngraph2op2OpC1ERKSt6vectorISt10shared_ptrINS_4NodeEESaIS5_EE
libngraph.so.0.22:_ZN6ngraph2op2OpC2ERKNSt7__cxx1112basic_stringIcSt11char_traitsIcESaIcEEERKSt6vectorISt10shared_ptrINS_4NodeEESaISD_EE
libngraph.so.0.22:_ZN6ngraph2op2OpC2ERKSt6vectorINS_6OutputINS_4NodeEEESaIS5_EE
libngraph.so.0.22:_ZN6ngraph2op2OpC2ERKSt6vectorISt10shared_ptrINS_4NodeEESaIS5_EE
libngraph.so.0.22:_ZN6ngraph2op2OrC1ERKSt10shared_ptrINS_4NodeEES6_RKNS0_17AutoBroadcastSpecE
libngraph.so.0.22:_ZN6ngraph2op2OrC2ERKSt10shared_ptrINS_4NodeEES6_RKNS0_17AutoBroadcastSpecE
libngraph.so.0.22:_ZN6ngraph2op33QuantizedConvolutionBiasSignedAddC1ERKSt10shared_ptrINS_4NodeEES6_S6_S6_RKNS_7StridesES9_RKNS_14CoordinateDiffESC_S9_S6_S6_b
libngraph.so.0.22:_ZN6ngraph2op33QuantizedConvolutionBiasSignedAddC2ERKSt10shared_ptrINS_4NodeEES6_S6_S6_RKNS_7StridesES9_RKNS_14CoordinateDiffESC_S9_S6_S6_b
libngraph.so.0.22:_ZN6ngraph2op34ConvolutionBiasBackpropFiltersBiasC1ERKSt10shared_ptrINS_4NodeEERKNS_5ShapeES9_S6_RKNS_7StridesESC_RKNS_14CoordinateDiffESF_SC_
libngraph.so.0.22:_ZN6ngraph2op34ConvolutionBiasBackpropFiltersBiasC2ERKSt10shared_ptrINS_4NodeEERKNS_5ShapeES9_S6_RKNS_7StridesESC_RKNS_14CoordinateDiffESF_SC_
libngraph.so.0.22:_ZN6ngraph2op3Abs17generate_adjointsERNS_8autodiff8AdjointsERKSt6vectorISt10shared_ptrINS_4NodeEESaIS8_EE
libngraph.so.0.22:_ZN6ngraph2op3AbsC1ERKNS_6OutputINS_4NodeEEE
libngraph.so.0.22:_ZN6ngraph2op3AbsC1Ev
libngraph.so.0.22:_ZN6ngraph2op3AbsC2ERKNS_6OutputINS_4NodeEEE
libngraph.so.0.22:_ZN6ngraph2op3AbsC2Ev
libngraph.so.0.22:_ZN6ngraph2op3Add17generate_adjointsERNS_8autodiff8AdjointsERKSt6vectorISt10shared_ptrINS_4NodeEESaIS8_EE
libngraph.so.0.22:_ZN6ngraph2op3AddC1ERKNS_6OutputINS_4NodeEEES6_RKNS0_17AutoBroadcastSpecE
libngraph.so.0.22:_ZN6ngraph2op3AddC1Ev
libngraph.so.0.22:_ZN6ngraph2op3AddC2ERKNS_6OutputINS_4NodeEEES6_RKNS0_17AutoBroadcastSpecE
libngraph.so.0.22:_ZN6ngraph2op3AddC2Ev
libngraph.so.0.22:_ZN6ngraph2op3AllC1ERKNS_6OutputINS_4NodeEEERKNS_7AxisSetE
libngraph.so.0.22:_ZN6ngraph2op3AllC1ERKNS_6OutputINS_4NodeEEES6_
libngraph.so.0.22:_ZN6ngraph2op3AllC1Ev
libngraph.so.0.22:_ZN6ngraph2op3AllC2ERKNS_6OutputINS_4NodeEEERKNS_7AxisSetE
libngraph.so.0.22:_ZN6ngraph2op3AllC2ERKNS_6OutputINS_4NodeEEES6_
libngraph.so.0.22:_ZN6ngraph2op3AllC2Ev
libngraph.so.0.22:_ZN6ngraph2op3AndC1ERKNS_6OutputINS_4NodeEEES6_RKNS0_17AutoBroadcastSpecE
libngraph.so.0.22:_ZN6ngraph2op3AndC1Ev
libngraph.so.0.22:_ZN6ngraph2op3AndC2ERKNS_6OutputINS_4NodeEEES6_RKNS0_17AutoBroadcastSpecE
libngraph.so.0.22:_ZN6ngraph2op3AndC2Ev
libngraph.so.0.22:_ZN6ngraph2op3AnyC1ERKNS_6OutputINS_4NodeEEERKNS_7AxisSetE
libngraph.so.0.22:_ZN6ngraph2op3AnyC1ERKNS_6OutputINS_4NodeEEES6_
libngraph.so.0.22:_ZN6ngraph2op3AnyC1Ev
libngraph.so.0.22:_ZN6ngraph2op3AnyC2ERKNS_6OutputINS_4NodeEEERKNS_7AxisSetE
libngraph.so.0.22:_ZN6ngraph2op3AnyC2ERKNS_6OutputINS_4NodeEEES6_
libngraph.so.0.22:_ZN6ngraph2op3AnyC2Ev
libngraph.so.0.22:_ZN6ngraph2op3Cos17generate_adjointsERNS_8autodiff8AdjointsERKSt6vectorISt10shared_ptrINS_4NodeEESaIS8_EE
libngraph.so.0.22:_ZN6ngraph2op3CosC1ERKSt10shared_ptrINS_4NodeEE
libngraph.so.0.22:_ZN6ngraph2op3CosC2ERKSt10shared_ptrINS_4NodeEE
libngraph.so.0.22:_ZN6ngraph2op3Dot17generate_adjointsERNS_8autodiff8AdjointsERKSt6vectorISt10shared_ptrINS_4NodeEESaIS8_EE
libngraph.so.0.22:_ZN6ngraph2op3Dot24validate_and_infer_typesEv
libngraph.so.0.22:_ZN6ngraph2op3DotC1ERKSt10shared_ptrINS_4NodeEES6_
libngraph.so.0.22:_ZN6ngraph2op3DotC1ERKSt10shared_ptrINS_4NodeEES6_mb
libngraph.so.0.22:_ZN6ngraph2op3DotC2ERKSt10shared_ptrINS_4NodeEES6_
libngraph.so.0.22:_ZN6ngraph2op3DotC2ERKSt10shared_ptrINS_4NodeEES6_mb
libngraph.so.0.22:_ZN6ngraph2op3EluC1ERKSt10shared_ptrINS_4NodeEES6_
libngraph.so.0.22:_ZN6ngraph2op3EluC2ERKSt10shared_ptrINS_4NodeEES6_
libngraph.so.0.22:_ZN6ngraph2op3ErfC1ESt10shared_ptrINS_4NodeEE
libngraph.so.0.22:_ZN6ngraph2op3ErfC2ESt10shared_ptrINS_4NodeEE
libngraph.so.0.22:_ZN6ngraph2op3Exp17generate_adjointsERNS_8autodiff8AdjointsERKSt6vectorISt10shared_ptrINS_4NodeEESaIS8_EE
libngraph.so.0.22:_ZN6ngraph2op3ExpC1ERKSt10shared_ptrINS_4NodeEE
libngraph.so.0.22:_ZN6ngraph2op3ExpC2ERKSt10shared_ptrINS_4NodeEE
libngraph.so.0.22:_ZN6ngraph2op3GRN28pre_validate_and_infer_typesEv
libngraph.so.0.22:_ZN6ngraph2op3GRNC1ERKSt10shared_ptrINS_4NodeEEf
libngraph.so.0.22:_ZN6ngraph2op3GRNC2ERKSt10shared_ptrINS_4NodeEEf
libngraph.so.0.22:_ZN6ngraph2op3LRN17generate_adjointsERNS_8autodiff8AdjointsERKSt6vectorISt10shared_ptrINS_4NodeEESaIS8_EE
libngraph.so.0.22:_ZN6ngraph2op3LRN24validate_and_infer_typesEv
libngraph.so.0.22:_ZN6ngraph2op3LRNC1ERKSt10shared_ptrINS_4NodeEEdddm
libngraph.so.0.22:_ZN6ngraph2op3LRNC2ERKSt10shared_ptrINS_4NodeEEdddm
libngraph.so.0.22:_ZN6ngraph2op3Log17generate_adjointsERNS_8autodiff8AdjointsERKSt6vectorISt10shared_ptrINS_4NodeEESaIS8_EE
libngraph.so.0.22:_ZN6ngraph2op3LogC1ERKSt10shared_ptrINS_4NodeEE
libngraph.so.0.22:_ZN6ngraph2op3LogC2ERKSt10shared_ptrINS_4NodeEE
libngraph.so.0.22:_ZN6ngraph2op3MVNC1ERKSt10shared_ptrINS_4NodeEEbbd
libngraph.so.0.22:_ZN6ngraph2op3MVNC2ERKSt10shared_ptrINS_4NodeEEbbd
libngraph.so.0.22:_ZN6ngraph2op3MaxC1ERKNS_6OutputINS_4NodeEEERKNS_7AxisSetE
libngraph.so.0.22:_ZN6ngraph2op3MaxC1ERKNS_6OutputINS_4NodeEEES6_
libngraph.so.0.22:_ZN6ngraph2op3MaxC1Ev
libngraph.so.0.22:_ZN6ngraph2op3MaxC2ERKNS_6OutputINS_4NodeEEERKNS_7AxisSetE
libngraph.so.0.22:_ZN6ngraph2op3MaxC2ERKNS_6OutputINS_4NodeEEES6_
libngraph.so.0.22:_ZN6ngraph2op3MaxC2Ev
libngraph.so.0.22:_ZN6ngraph2op3MinC1ERKNS_6OutputINS_4NodeEEERKNS_7AxisSetE
libngraph.so.0.22:_ZN6ngraph2op3MinC1ERKNS_6OutputINS_4NodeEEES6_
libngraph.so.0.22:_ZN6ngraph2op3MinC1Ev
libngraph.so.0.22:_ZN6ngraph2op3MinC2ERKNS_6OutputINS_4NodeEEERKNS_7AxisSetE
libngraph.so.0.22:_ZN6ngraph2op3MinC2ERKNS_6OutputINS_4NodeEEES6_
libngraph.so.0.22:_ZN6ngraph2op3MinC2Ev
libngraph.so.0.22:_ZN6ngraph2op3Not24validate_and_infer_typesEv
libngraph.so.0.22:_ZN6ngraph2op3NotC1ERKSt10shared_ptrINS_4NodeEE
libngraph.so.0.22:_ZN6ngraph2op3NotC2ERKSt10shared_ptrINS_4NodeEE
libngraph.so.0.22:_ZN6ngraph2op3Pad17generate_adjointsERNS_8autodiff8AdjointsERKSt6vectorISt10shared_ptrINS_4NodeEESaIS8_EE
libngraph.so.0.22:_ZN6ngraph2op3Pad24validate_and_infer_typesEv
libngraph.so.0.22:_ZN6ngraph2op3PadC1ERKSt10shared_ptrINS_4NodeEES6_RKNS_14CoordinateDiffES9_NS0_7PadModeE
libngraph.so.0.22:_ZN6ngraph2op3PadC2ERKSt10shared_ptrINS_4NodeEES6_RKNS_14CoordinateDiffES9_NS0_7PadModeE
libngraph.so.0.22:_ZN6ngraph2op3Sin17generate_adjointsERNS_8autodiff8AdjointsERKSt6vectorISt10shared_ptrINS_4NodeEESaIS8_EE
libngraph.so.0.22:_ZN6ngraph2op3SinC1ERKSt10shared_ptrINS_4NodeEE
libngraph.so.0.22:_ZN6ngraph2op3SinC2ERKSt10shared_ptrINS_4NodeEE
libngraph.so.0.22:_ZN6ngraph2op3Sum17generate_adjointsERNS_8autodiff8AdjointsERKSt6vectorISt10shared_ptrINS_4NodeEESaIS8_EE
libngraph.so.0.22:_ZN6ngraph2op3SumC1ERKNS_6OutputINS_4NodeEEERKNS_7AxisSetE
libngraph.so.0.22:_ZN6ngraph2op3SumC1ERKNS_6OutputINS_4NodeEEES6_
libngraph.so.0.22:_ZN6ngraph2op3SumC1Ev
libngraph.so.0.22:_ZN6ngraph2op3SumC2ERKNS_6OutputINS_4NodeEEERKNS_7AxisSetE
libngraph.so.0.22:_ZN6ngraph2op3SumC2ERKNS_6OutputINS_4NodeEEES6_
libngraph.so.0.22:_ZN6ngraph2op3SumC2Ev
libngraph.so.0.22:_ZN6ngraph2op3Tan17generate_adjointsERNS_8autodiff8AdjointsERKSt6vectorISt10shared_ptrINS_4NodeEESaIS8_EE
libngraph.so.0.22:_ZN6ngraph2op3TanC1ERKSt10shared_ptrINS_4NodeEE
libngraph.so.0.22:_ZN6ngraph2op3TanC2ERKSt10shared_ptrINS_4NodeEE
libngraph.so.0.22:_ZN6ngraph2op42numpy_style_broadcast_for_matmul_operationERKSt10shared_ptrINS_4NodeEES5_
libngraph.so.0.22:_ZN6ngraph2op43legacy_style_broadcast_for_binary_operationERKSt10shared_ptrINS_4NodeEES5_m
libngraph.so.0.22:_ZN6ngraph2op4Acos17generate_adjointsERNS_8autodiff8AdjointsERKSt6vectorISt10shared_ptrINS_4NodeEESaIS8_EE
libngraph.so.0.22:_ZN6ngraph2op4AcosC1ERKNS_6OutputINS_4NodeEEE
libngraph.so.0.22:_ZN6ngraph2op4AcosC1Ev
libngraph.so.0.22:_ZN6ngraph2op4AcosC2ERKNS_6OutputINS_4NodeEEE
libngraph.so.0.22:_ZN6ngraph2op4AcosC2Ev
libngraph.so.0.22:_ZN6ngraph2op4Asin17generate_adjointsERNS_8autodiff8AdjointsERKSt6vectorISt10shared_ptrINS_4NodeEESaIS8_EE
libngraph.so.0.22:_ZN6ngraph2op4AsinC1ERKNS_6OutputINS_4NodeEEE
libngraph.so.0.22:_ZN6ngraph2op4AsinC1Ev
libngraph.so.0.22:_ZN6ngraph2op4AsinC2ERKNS_6OutputINS_4NodeEEE
libngraph.so.0.22:_ZN6ngraph2op4AsinC2Ev
libngraph.so.0.22:_ZN6ngraph2op4Atan17generate_adjointsERNS_8autodiff8AdjointsERKSt6vectorISt10shared_ptrINS_4NodeEESaIS8_EE
libngraph.so.0.22:_ZN6ngraph2op4AtanC1ERKNS_6OutputINS_4NodeEEE
libngraph.so.0.22:_ZN6ngraph2op4AtanC1Ev
libngraph.so.0.22:_ZN6ngraph2op4AtanC2ERKNS_6OutputINS_4NodeEEE
libngraph.so.0.22:_ZN6ngraph2op4AtanC2Ev
libngraph.so.0.22:_ZN6ngraph2op4Cosh17generate_adjointsERNS_8autodiff8AdjointsERKSt6vectorISt10shared_ptrINS_4NodeEESaIS8_EE
libngraph.so.0.22:_ZN6ngraph2op4CoshC1ERKSt10shared_ptrINS_4NodeEE
libngraph.so.0.22:_ZN6ngraph2op4CoshC2ERKSt10shared_ptrINS_4NodeEE
libngraph.so.0.22:_ZN6ngraph2op4GemmC1ERKSt10shared_ptrINS_4NodeEES6_S6_ddbb
libngraph.so.0.22:_ZN6ngraph2op4GemmC2ERKSt10shared_ptrINS_4NodeEES6_S6_ddbb
libngraph.so.0.22:_ZN6ngraph2op4LessC1ERKSt10shared_ptrINS_4NodeEES6_RKNS0_17AutoBroadcastSpecE
libngraph.so.0.22:_ZN6ngraph2op4LessC2ERKSt10shared_ptrINS_4NodeEES6_RKNS0_17AutoBroadcastSpecE
libngraph.so.0.22:_ZN6ngraph2op4Relu17generate_adjointsERNS_8autodiff8AdjointsERKSt6vectorISt10shared_ptrINS_4NodeEESaIS8_EE
libngraph.so.0.22:_ZN6ngraph2op4ReluC1ESt10shared_ptrINS_4NodeEE
libngraph.so.0.22:_ZN6ngraph2op4ReluC2ESt10shared_ptrINS_4NodeEE
libngraph.so.0.22:_ZN6ngraph2op4SignC1ERKSt10shared_ptrINS_4NodeEE
libngraph.so.0.22:_ZN6ngraph2op4SignC2ERKSt10shared_ptrINS_4NodeEE
libngraph.so.0.22:_ZN6ngraph2op4Sinh17generate_adjointsERNS_8autodiff8AdjointsERKSt6vectorISt10shared_ptrINS_4NodeEESaIS8_EE
libngraph.so.0.22:_ZN6ngraph2op4SinhC1ERKSt10shared_ptrINS_4NodeEE
libngraph.so.0.22:_ZN6ngraph2op4SinhC2ERKSt10shared_ptrINS_4NodeEE
libngraph.so.0.22:_ZN6ngraph2op4Sqrt17generate_adjointsERNS_8autodiff8AdjointsERKSt6vectorISt10shared_ptrINS_4NodeEESaIS8_EE
libngraph.so.0.22:_ZN6ngraph2op4SqrtC1ERKSt10shared_ptrINS_4NodeEE
libngraph.so.0.22:_ZN6ngraph2op4SqrtC2ERKSt10shared_ptrINS_4NodeEE
libngraph.so.0.22:_ZN6ngraph2op4Tanh17generate_adjointsERNS_8autodiff8AdjointsERKSt6vectorISt10shared_ptrINS_4NodeEESaIS8_EE
libngraph.so.0.22:_ZN6ngraph2op4TanhC1ERKSt10shared_ptrINS_4NodeEE
libngraph.so.0.22:_ZN6ngraph2op4TanhC2ERKSt10shared_ptrINS_4NodeEE
libngraph.so.0.22:_ZN6ngraph2op4Tile17generate_adjointsERNS_8autodiff8AdjointsERKSt6vectorISt10shared_ptrINS_4NodeEESaIS8_EE
libngraph.so.0.22:_ZN6ngraph2op4Tile24validate_and_infer_typesEv
libngraph.so.0.22:_ZN6ngraph2op4TileC1ERKSt10shared_ptrINS_4NodeEES6_
libngraph.so.0.22:_ZN6ngraph2op4TileC2ERKSt10shared_ptrINS_4NodeEES6_
libngraph.so.0.22:_ZN6ngraph2op4TopK17generate_adjointsERNS_8autodiff8AdjointsERKSt6vectorISt10shared_ptrINS_4NodeEESaIS8_EE
libngraph.so.0.22:_ZN6ngraph2op4TopK24validate_and_infer_typesEv
libngraph.so.0.22:_ZN6ngraph2op4TopK5set_kEm
libngraph.so.0.22:_ZN6ngraph2op4TopKC1ERKNS_6OutputINS_4NodeEEES6_mRKNS_7element4TypeEb
libngraph.so.0.22:_ZN6ngraph2op4TopKC1ERKNS_6OutputINS_4NodeEEEmRKNS_7element4TypeEmb
libngraph.so.0.22:_ZN6ngraph2op4TopKC1Ev
libngraph.so.0.22:_ZN6ngraph2op4TopKC2ERKNS_6OutputINS_4NodeEEES6_mRKNS_7element4TypeEb
libngraph.so.0.22:_ZN6ngraph2op4TopKC2ERKNS_6OutputINS_4NodeEEEmRKNS_7element4TypeEmb
libngraph.so.0.22:_ZN6ngraph2op4TopKC2Ev
libngraph.so.0.22:_ZN6ngraph2op4util12reorder_axesERKSt10shared_ptrINS_4NodeEESt6vectorImSaImEE
libngraph.so.0.22:_ZN6ngraph2op4util14IndexReduction17generate_adjointsERNS_8autodiff8AdjointsERKSt6vectorISt10shared_ptrINS_4NodeEESaIS9_EE
libngraph.so.0.22:_ZN6ngraph2op4util14IndexReduction18set_reduction_axisEm
libngraph.so.0.22:_ZN6ngraph2op4util14IndexReduction22set_index_element_typeERKNS_7element4TypeE
libngraph.so.0.22:_ZN6ngraph2op4util14IndexReduction24validate_and_infer_typesEv
libngraph.so.0.22:_ZN6ngraph2op4util14IndexReductionC1ERKNS_6OutputINS_4NodeEEEmRKNS_7element4TypeE
libngraph.so.0.22:_ZN6ngraph2op4util14IndexReductionC1ERKNSt7__cxx1112basic_stringIcSt11char_traitsIcESaIcEEERKSt10shared_ptrINS_4NodeEEmRKNS_7element4TypeE
libngraph.so.0.22:_ZN6ngraph2op4util14IndexReductionC1ERKSt10shared_ptrINS_4NodeEEmRKNS_7element4TypeE
libngraph.so.0.22:_ZN6ngraph2op4util14IndexReductionC1Ev
libngraph.so.0.22:_ZN6ngraph2op4util14IndexReductionC2ERKNS_6OutputINS_4NodeEEEmRKNS_7element4TypeE
libngraph.so.0.22:_ZN6ngraph2op4util14IndexReductionC2ERKNSt7__cxx1112basic_stringIcSt11char_traitsIcESaIcEEERKSt10shared_ptrINS_4NodeEEmRKNS_7element4TypeE
libngraph.so.0.22:_ZN6ngraph2op4util14IndexReductionC2ERKSt10shared_ptrINS_4NodeEEmRKNS_7element4TypeE
libngraph.so.0.22:_ZN6ngraph2op4util14IndexReductionC2Ev
libngraph.so.0.22:_ZN6ngraph2op4util16LogicalReduction18set_reduction_axesERKNS_7AxisSetE
libngraph.so.0.22:_ZN6ngraph2op4util16LogicalReduction24validate_and_infer_typesEv
libngraph.so.0.22:_ZN6ngraph2op4util16LogicalReductionC1ERKNS_6OutputINS_4NodeEEERKNS_7AxisSetE
libngraph.so.0.22:_ZN6ngraph2op4util16LogicalReductionC1ERKNS_6OutputINS_4NodeEEES7_
libngraph.so.0.22:_ZN6ngraph2op4util16LogicalReductionC1Ev
libngraph.so.0.22:_ZN6ngraph2op4util16LogicalReductionC2ERKNS_6OutputINS_4NodeEEERKNS_7AxisSetE
libngraph.so.0.22:_ZN6ngraph2op4util16LogicalReductionC2ERKNS_6OutputINS_4NodeEEES7_
libngraph.so.0.22:_ZN6ngraph2op4util16LogicalReductionC2Ev
libngraph.so.0.22:_ZN6ngraph2op4util19ArithmeticReduction18set_reduction_axesERKNS_7AxisSetE
libngraph.so.0.22:_ZN6ngraph2op4util19ArithmeticReduction24validate_and_infer_typesEv
libngraph.so.0.22:_ZN6ngraph2op4util19ArithmeticReductionC1ERKNS_6OutputINS_4NodeEEERKNS_7AxisSetE
libngraph.so.0.22:_ZN6ngraph2op4util19ArithmeticReductionC1ERKNS_6OutputINS_4NodeEEES7_
libngraph.so.0.22:_ZN6ngraph2op4util19ArithmeticReductionC1Ev
libngraph.so.0.22:_ZN6ngraph2op4util19ArithmeticReductionC2ERKNS_6OutputINS_4NodeEEERKNS_7AxisSetE
libngraph.so.0.22:_ZN6ngraph2op4util19ArithmeticReductionC2ERKNS_6OutputINS_4NodeEEES7_
libngraph.so.0.22:_ZN6ngraph2op4util19ArithmeticReductionC2Ev
libngraph.so.0.22:_ZN6ngraph2op4util19batch_mat_transposeERKSt10shared_ptrINS_4NodeEE
libngraph.so.0.22:_ZN6ngraph2op4util24BinaryElementwiseLogical24validate_and_infer_typesEv
libngraph.so.0.22:_ZN6ngraph2op4util24BinaryElementwiseLogicalC1ERKNS_6OutputINS_4NodeEEES7_RKNS0_17AutoBroadcastSpecE
libngraph.so.0.22:_ZN6ngraph2op4util24BinaryElementwiseLogicalC1ERKNSt7__cxx1112basic_stringIcSt11char_traitsIcESaIcEEERKSt10shared_ptrINS_4NodeEESF_RKNS0_17AutoBroadcastSpecE
libngraph.so.0.22:_ZN6ngraph2op4util24BinaryElementwiseLogicalC1ERKSt10shared_ptrINS_4NodeEES7_RKNS0_17AutoBroadcastSpecE
libngraph.so.0.22:_ZN6ngraph2op4util24BinaryElementwiseLogicalC1Ev
libngraph.so.0.22:_ZN6ngraph2op4util24BinaryElementwiseLogicalC2ERKNS_6OutputINS_4NodeEEES7_RKNS0_17AutoBroadcastSpecE
libngraph.so.0.22:_ZN6ngraph2op4util24BinaryElementwiseLogicalC2ERKNSt7__cxx1112basic_stringIcSt11char_traitsIcESaIcEEERKSt10shared_ptrINS_4NodeEESF_RKNS0_17AutoBroadcastSpecE
libngraph.so.0.22:_ZN6ngraph2op4util24BinaryElementwiseLogicalC2ERKSt10shared_ptrINS_4NodeEES7_RKNS0_17AutoBroadcastSpecE
libngraph.so.0.22:_ZN6ngraph2op4util24BinaryElementwiseLogicalC2Ev
libngraph.so.0.22:_ZN6ngraph2op4util26UnaryElementwiseArithmetic24validate_and_infer_typesEv
libngraph.so.0.22:_ZN6ngraph2op4util26UnaryElementwiseArithmeticC1ERKNS_6OutputINS_4NodeEEE
libngraph.so.0.22:_ZN6ngraph2op4util26UnaryElementwiseArithmeticC1ERKNSt7__cxx1112basic_stringIcSt11char_traitsIcESaIcEEERKSt10shared_ptrINS_4NodeEE
libngraph.so.0.22:_ZN6ngraph2op4util26UnaryElementwiseArithmeticC1ERKSt10shared_ptrINS_4NodeEE
libngraph.so.0.22:_ZN6ngraph2op4util26UnaryElementwiseArithmeticC1Ev
libngraph.so.0.22:_ZN6ngraph2op4util26UnaryElementwiseArithmeticC2ERKNS_6OutputINS_4NodeEEE
libngraph.so.0.22:_ZN6ngraph2op4util26UnaryElementwiseArithmeticC2ERKNSt7__cxx1112basic_stringIcSt11char_traitsIcESaIcEEERKSt10shared_ptrINS_4NodeEE
libngraph.so.0.22:_ZN6ngraph2op4util26UnaryElementwiseArithmeticC2ERKSt10shared_ptrINS_4NodeEE
libngraph.so.0.22:_ZN6ngraph2op4util26UnaryElementwiseArithmeticC2Ev
libngraph.so.0.22:_ZN6ngraph2op4util27BinaryElementwiseArithmetic24validate_and_infer_typesEv
libngraph.so.0.22:_ZN6ngraph2op4util27BinaryElementwiseArithmeticC1ERKNS_6OutputINS_4NodeEEES7_RKNS0_17AutoBroadcastSpecE
libngraph.so.0.22:_ZN6ngraph2op4util27BinaryElementwiseArithmeticC1ERKNSt7__cxx1112basic_stringIcSt11char_traitsIcESaIcEEERKSt10shared_ptrINS_4NodeEESF_RKNS0_17AutoBroadcastSpecE
libngraph.so.0.22:_ZN6ngraph2op4util27BinaryElementwiseArithmeticC1ERKSt10shared_ptrINS_4NodeEES7_RKNS0_17AutoBroadcastSpecE
libngraph.so.0.22:_ZN6ngraph2op4util27BinaryElementwiseArithmeticC1Ev
libngraph.so.0.22:_ZN6ngraph2op4util27BinaryElementwiseArithmeticC2ERKNS_6OutputINS_4NodeEEES7_RKNS0_17AutoBroadcastSpecE
libngraph.so.0.22:_ZN6ngraph2op4util27BinaryElementwiseArithmeticC2ERKNSt7__cxx1112basic_stringIcSt11char_traitsIcESaIcEEERKSt10shared_ptrINS_4NodeEESF_RKNS0_17AutoBroadcastSpecE
libngraph.so.0.22:_ZN6ngraph2op4util27BinaryElementwiseArithmeticC2ERKSt10shared_ptrINS_4NodeEES7_RKNS0_17AutoBroadcastSpecE
libngraph.so.0.22:_ZN6ngraph2op4util27BinaryElementwiseArithmeticC2Ev
libngraph.so.0.22:_ZN6ngraph2op4util27BinaryElementwiseComparison24validate_and_infer_typesEv
libngraph.so.0.22:_ZN6ngraph2op4util27BinaryElementwiseComparisonC1ERKNS_6OutputINS_4NodeEEES7_RKNS0_17AutoBroadcastSpecE
libngraph.so.0.22:_ZN6ngraph2op4util27BinaryElementwiseComparisonC1ERKNSt7__cxx1112basic_stringIcSt11char_traitsIcESaIcEEERKSt10shared_ptrINS_4NodeEESF_RKNS0_17AutoBroadcastSpecE
libngraph.so.0.22:_ZN6ngraph2op4util27BinaryElementwiseComparisonC1ERKSt10shared_ptrINS_4NodeEES7_RKNS0_17AutoBroadcastSpecE
libngraph.so.0.22:_ZN6ngraph2op4util27BinaryElementwiseComparisonC1Ev
libngraph.so.0.22:_ZN6ngraph2op4util27BinaryElementwiseComparisonC2ERKNS_6OutputINS_4NodeEEES7_RKNS0_17AutoBroadcastSpecE
libngraph.so.0.22:_ZN6ngraph2op4util27BinaryElementwiseComparisonC2ERKNSt7__cxx1112basic_stringIcSt11char_traitsIcESaIcEEERKSt10shared_ptrINS_4NodeEESF_RKNS0_17AutoBroadcastSpecE
libngraph.so.0.22:_ZN6ngraph2op4util27BinaryElementwiseComparisonC2ERKSt10shared_ptrINS_4NodeEES7_RKNS0_17AutoBroadcastSpecE
libngraph.so.0.22:_ZN6ngraph2op4util27BinaryElementwiseComparisonC2Ev
libngraph.so.0.22:_ZN6ngraph2op4util30infer_convolution_output_shapeEPKNS_4NodeERKNS_5ShapeES7_RKNS_7StridesESA_RKNS_14CoordinateDiffESD_SA_mmmmmm
libngraph.so.0.22:_ZN6ngraph2op4util7FusedOp17generate_adjointsERNS_8autodiff8AdjointsERKSt6vectorISt10shared_ptrINS_4NodeEESaIS9_EE
libngraph.so.0.22:_ZN6ngraph2op4util7FusedOp24validate_and_infer_typesEv
libngraph.so.0.22:_ZN6ngraph2op4util7FusedOpC1ERKNSt7__cxx1112basic_stringIcSt11char_traitsIcESaIcEEERKSt6vectorISt10shared_ptrINS_4NodeEESaISE_EE
libngraph.so.0.22:_ZN6ngraph2op4util7FusedOpC1ERKSt6vectorISt10shared_ptrINS_4NodeEESaIS6_EE
libngraph.so.0.22:_ZN6ngraph2op4util7FusedOpC1Ev
libngraph.so.0.22:_ZN6ngraph2op4util7FusedOpC2ERKNSt7__cxx1112basic_stringIcSt11char_traitsIcESaIcEEERKSt6vectorISt10shared_ptrINS_4NodeEESaISE_EE
libngraph.so.0.22:_ZN6ngraph2op4util7FusedOpC2ERKSt6vectorISt10shared_ptrINS_4NodeEESaIS6_EE
libngraph.so.0.22:_ZN6ngraph2op4util7FusedOpC2Ev
libngraph.so.0.22:_ZN6ngraph2op4util7flattenERKSt10shared_ptrINS_4NodeEEi
libngraph.so.0.22:_ZN6ngraph2op4util7reshapeERKSt10shared_ptrINS_4NodeEERKNS_5ShapeE
libngraph.so.0.22:_ZN6ngraph2op4util9transposeERKSt10shared_ptrINS_4NodeEE
libngraph.so.0.22:_ZN6ngraph2op5Clamp28pre_validate_and_infer_typesEv
libngraph.so.0.22:_ZN6ngraph2op5ClampC1ERKSt10shared_ptrINS_4NodeEEdd
libngraph.so.0.22:_ZN6ngraph2op5ClampC2ERKSt10shared_ptrINS_4NodeEEdd
libngraph.so.0.22:_ZN6ngraph2op5EqualC1ERKSt10shared_ptrINS_4NodeEES6_RKNS0_17AutoBroadcastSpecE
libngraph.so.0.22:_ZN6ngraph2op5EqualC2ERKSt10shared_ptrINS_4NodeEES6_RKNS0_17AutoBroadcastSpecE
libngraph.so.0.22:_ZN6ngraph2op5FloorC1ERKSt10shared_ptrINS_4NodeEE
libngraph.so.0.22:_ZN6ngraph2op5FloorC2ERKSt10shared_ptrINS_4NodeEE
libngraph.so.0.22:_ZN6ngraph2op5PReluC1ERKSt10shared_ptrINS_4NodeEES6_
libngraph.so.0.22:_ZN6ngraph2op5PReluC2ERKSt10shared_ptrINS_4NodeEES6_
libngraph.so.0.22:_ZN6ngraph2op5Power17generate_adjointsERNS_8autodiff8AdjointsERKSt6vectorISt10shared_ptrINS_4NodeEESaIS8_EE
libngraph.so.0.22:_ZN6ngraph2op5PowerC1ERKSt10shared_ptrINS_4NodeEES6_RKNS0_17AutoBroadcastSpecE
libngraph.so.0.22:_ZN6ngraph2op5PowerC2ERKSt10shared_ptrINS_4NodeEES6_RKNS0_17AutoBroadcastSpecE
libngraph.so.0.22:_ZN6ngraph2op5Slice17generate_adjointsERNS_8autodiff8AdjointsERKSt6vectorISt10shared_ptrINS_4NodeEESaIS8_EE
libngraph.so.0.22:_ZN6ngraph2op5Slice24validate_and_infer_typesEv
libngraph.so.0.22:_ZN6ngraph2op5SliceC1ERKSt10shared_ptrINS_4NodeEERKNS_10CoordinateES9_
libngraph.so.0.22:_ZN6ngraph2op5SliceC1ERKSt10shared_ptrINS_4NodeEERKNS_10CoordinateES9_RKNS_7StridesE
libngraph.so.0.22:_ZN6ngraph2op5SliceC2ERKSt10shared_ptrINS_4NodeEERKNS_10CoordinateES9_
libngraph.so.0.22:_ZN6ngraph2op5SliceC2ERKSt10shared_ptrINS_4NodeEERKNS_10CoordinateES9_RKNS_7StridesE
libngraph.so.0.22:_ZN6ngraph2op5Split28pre_validate_and_infer_typesEv
libngraph.so.0.22:_ZN6ngraph2op5SplitC1ERKSt10shared_ptrINS_4NodeEEiRKSt6vectorImSaImEE
libngraph.so.0.22:_ZN6ngraph2op5SplitC1ERKSt10shared_ptrINS_4NodeEEim
libngraph.so.0.22:_ZN6ngraph2op5SplitC2ERKSt10shared_ptrINS_4NodeEEiRKSt6vectorImSaImEE
libngraph.so.0.22:_ZN6ngraph2op5SplitC2ERKSt10shared_ptrINS_4NodeEEim
libngraph.so.0.22:_ZN6ngraph2op6ArgMaxC1ERKNS_6OutputINS_4NodeEEEmRKNS_7element4TypeE
libngraph.so.0.22:_ZN6ngraph2op6ArgMaxC1Ev
libngraph.so.0.22:_ZN6ngraph2op6ArgMaxC2ERKNS_6OutputINS_4NodeEEEmRKNS_7element4TypeE
libngraph.so.0.22:_ZN6ngraph2op6ArgMaxC2Ev
libngraph.so.0.22:_ZN6ngraph2op6ArgMinC1ERKNS_6OutputINS_4NodeEEEmRKNS_7element4TypeE
libngraph.so.0.22:_ZN6ngraph2op6ArgMinC1Ev
libngraph.so.0.22:_ZN6ngraph2op6ArgMinC2ERKNS_6OutputINS_4NodeEEEmRKNS_7element4TypeE
libngraph.so.0.22:_ZN6ngraph2op6ArgMinC2Ev
libngraph.so.0.22:_ZN6ngraph2op6Concat17generate_adjointsERNS_8autodiff8AdjointsERKSt6vectorISt10shared_ptrINS_4NodeEESaIS8_EE
libngraph.so.0.22:_ZN6ngraph2op6Concat24validate_and_infer_typesEv
libngraph.so.0.22:_ZN6ngraph2op6ConcatC1ERKSt6vectorISt10shared_ptrINS_4NodeEESaIS5_EEm
libngraph.so.0.22:_ZN6ngraph2op6ConcatC2ERKSt6vectorISt10shared_ptrINS_4NodeEESaIS5_EEm
libngraph.so.0.22:_ZN6ngraph2op6Divide17generate_adjointsERNS_8autodiff8AdjointsERKSt6vectorISt10shared_ptrINS_4NodeEESaIS8_EE
libngraph.so.0.22:_ZN6ngraph2op6DivideC1ERKSt10shared_ptrINS_4NodeEES6_RKNS0_17AutoBroadcastSpecE
libngraph.so.0.22:_ZN6ngraph2op6DivideC1ERKSt10shared_ptrINS_4NodeEES6_bRKNS0_17AutoBroadcastSpecE
libngraph.so.0.22:_ZN6ngraph2op6DivideC2ERKSt10shared_ptrINS_4NodeEES6_RKNS0_17AutoBroadcastSpecE
libngraph.so.0.22:_ZN6ngraph2op6DivideC2ERKSt10shared_ptrINS_4NodeEES6_bRKNS0_17AutoBroadcastSpecE
libngraph.so.0.22:_ZN6ngraph2op6DynPad17generate_adjointsERNS_8autodiff8AdjointsERKSt6vectorISt10shared_ptrINS_4NodeEESaIS8_EE
libngraph.so.0.22:_ZN6ngraph2op6DynPad24validate_and_infer_typesEv
libngraph.so.0.22:_ZN6ngraph2op6DynPadC1ERKSt10shared_ptrINS_4NodeEES6_S6_S6_
libngraph.so.0.22:_ZN6ngraph2op6DynPadC2ERKSt10shared_ptrINS_4NodeEES6_S6_S6_
libngraph.so.0.22:_ZN6ngraph2op6Gather24validate_and_infer_typesEv
libngraph.so.0.22:_ZN6ngraph2op6LessEqC1ERKSt10shared_ptrINS_4NodeEES6_RKNS0_17AutoBroadcastSpecE
libngraph.so.0.22:_ZN6ngraph2op6LessEqC2ERKSt10shared_ptrINS_4NodeEES6_RKNS0_17AutoBroadcastSpecE
libngraph.so.0.22:_ZN6ngraph2op6OneHot24validate_and_infer_typesEv
libngraph.so.0.22:_ZN6ngraph2op6OneHotC1ERKSt10shared_ptrINS_4NodeEERKNS_12PartialShapeEm
libngraph.so.0.22:_ZN6ngraph2op6OneHotC2ERKSt10shared_ptrINS_4NodeEERKNS_12PartialShapeEm
libngraph.so.0.22:_ZN6ngraph2op6Result17generate_adjointsERNS_8autodiff8AdjointsERKSt6vectorISt10shared_ptrINS_4NodeEESaIS8_EE
libngraph.so.0.22:_ZN6ngraph2op6Result24validate_and_infer_typesEv
libngraph.so.0.22:_ZN6ngraph2op6ResultC1ERKSt10shared_ptrINS_4NodeEEb
libngraph.so.0.22:_ZN6ngraph2op6ResultC2ERKSt10shared_ptrINS_4NodeEEb
libngraph.so.0.22:_ZN6ngraph2op6Select17generate_adjointsERNS_8autodiff8AdjointsERKSt6vectorISt10shared_ptrINS_4NodeEESaIS8_EE
libngraph.so.0.22:_ZN6ngraph2op6Select24validate_and_infer_typesEv
libngraph.so.0.22:_ZN6ngraph2op6SelectC1ERKSt10shared_ptrINS_4NodeEES6_S6_
libngraph.so.0.22:_ZN6ngraph2op6SelectC2ERKSt10shared_ptrINS_4NodeEES6_S6_
libngraph.so.0.22:_ZN6ngraph2op7AvgPool12set_pad_typeERKNS0_7PadTypeE
libngraph.so.0.22:_ZN6ngraph2op7AvgPool13set_ceil_modeEb
libngraph.so.0.22:_ZN6ngraph2op7AvgPool16set_window_shapeERKNS_5ShapeE
libngraph.so.0.22:_ZN6ngraph2op7AvgPool17generate_adjointsERNS_8autodiff8AdjointsERKSt6vectorISt10shared_ptrINS_4NodeEESaIS8_EE
libngraph.so.0.22:_ZN6ngraph2op7AvgPool17set_padding_aboveERKNS_5ShapeE
libngraph.so.0.22:_ZN6ngraph2op7AvgPool17set_padding_belowERKNS_5ShapeE
libngraph.so.0.22:_ZN6ngraph2op7AvgPool24validate_and_infer_typesEv
libngraph.so.0.22:_ZN6ngraph2op7AvgPool27set_window_movement_stridesERKNS_7StridesE
libngraph.so.0.22:_ZN6ngraph2op7AvgPool38get_include_padding_in_avg_computationEb
libngraph.so.0.22:_ZN6ngraph2op7AvgPoolC1ERKNS_6OutputINS_4NodeEEERKNS_5ShapeE
libngraph.so.0.22:_ZN6ngraph2op7AvgPoolC1ERKNS_6OutputINS_4NodeEEERKNS_5ShapeERKNS_7StridesE
libngraph.so.0.22:_ZN6ngraph2op7AvgPoolC1ERKNS_6OutputINS_4NodeEEERKNS_5ShapeERKNS_7StridesES9_S9_b
libngraph.so.0.22:_ZN6ngraph2op7AvgPoolC1ERKNS_6OutputINS_4NodeEEERKNS_5ShapeERKNS_7StridesES9_S9_bRKNS0_7PadTypeE
libngraph.so.0.22:_ZN6ngraph2op7AvgPoolC1ERKNS_6OutputINS_4NodeEEERKNS_5ShapeERKNS_7StridesES9_S9_bRKNS0_7PadTypeEb
libngraph.so.0.22:_ZN6ngraph2op7AvgPoolC1Ev
libngraph.so.0.22:_ZN6ngraph2op7AvgPoolC2ERKNS_6OutputINS_4NodeEEERKNS_5ShapeE
libngraph.so.0.22:_ZN6ngraph2op7AvgPoolC2ERKNS_6OutputINS_4NodeEEERKNS_5ShapeERKNS_7StridesE
libngraph.so.0.22:_ZN6ngraph2op7AvgPoolC2ERKNS_6OutputINS_4NodeEEERKNS_5ShapeERKNS_7StridesES9_S9_b
libngraph.so.0.22:_ZN6ngraph2op7AvgPoolC2ERKNS_6OutputINS_4NodeEEERKNS_5ShapeERKNS_7StridesES9_S9_bRKNS0_7PadTypeE
libngraph.so.0.22:_ZN6ngraph2op7AvgPoolC2ERKNS_6OutputINS_4NodeEEERKNS_5ShapeERKNS_7StridesES9_S9_bRKNS0_7PadTypeEb
libngraph.so.0.22:_ZN6ngraph2op7AvgPoolC2Ev
libngraph.so.0.22:_ZN6ngraph2op7CeilingC1ERKSt10shared_ptrINS_4NodeEE
libngraph.so.0.22:_ZN6ngraph2op7CeilingC2ERKSt10shared_ptrINS_4NodeEE
libngraph.so.0.22:_ZN6ngraph2op7Convert17generate_adjointsERNS_8autodiff8AdjointsERKSt6vectorISt10shared_ptrINS_4NodeEESaIS8_EE
libngraph.so.0.22:_ZN6ngraph2op7Convert24validate_and_infer_typesEv
libngraph.so.0.22:_ZN6ngraph2op7ConvertC1ERKSt10shared_ptrINS_4NodeEERKNS_7element4TypeE
libngraph.so.0.22:_ZN6ngraph2op7ConvertC2ERKSt10shared_ptrINS_4NodeEERKNS_7element4TypeE
libngraph.so.0.22:_ZN6ngraph2op7GreaterC1ERKSt10shared_ptrINS_4NodeEES6_RKNS0_17AutoBroadcastSpecE
libngraph.so.0.22:_ZN6ngraph2op7GreaterC2ERKSt10shared_ptrINS_4NodeEES6_RKNS0_17AutoBroadcastSpecE
libngraph.so.0.22:_ZN6ngraph2op7MaxPool17generate_adjointsERNS_8autodiff8AdjointsERKSt6vectorISt10shared_ptrINS_4NodeEESaIS8_EE
libngraph.so.0.22:_ZN6ngraph2op7MaxPool24validate_and_infer_typesEv
libngraph.so.0.22:_ZN6ngraph2op7MaxPoolC1ERKSt10shared_ptrINS_4NodeEERKNS_5ShapeE
libngraph.so.0.22:_ZN6ngraph2op7MaxPoolC1ERKSt10shared_ptrINS_4NodeEERKNS_5ShapeERKNS_7StridesE
libngraph.so.0.22:_ZN6ngraph2op7MaxPoolC1ERKSt10shared_ptrINS_4NodeEERKNS_5ShapeERKNS_7StridesES9_S9_
libngraph.so.0.22:_ZN6ngraph2op7MaxPoolC1ERKSt10shared_ptrINS_4NodeEERKNS_5ShapeERKNS_7StridesES9_S9_RKNS0_7PadTypeE
libngraph.so.0.22:_ZN6ngraph2op7MaxPoolC1ERKSt10shared_ptrINS_4NodeEERKNS_5ShapeERKNS_7StridesES9_S9_RKNS0_7PadTypeEb
libngraph.so.0.22:_ZN6ngraph2op7MaxPoolC2ERKSt10shared_ptrINS_4NodeEERKNS_5ShapeE
libngraph.so.0.22:_ZN6ngraph2op7MaxPoolC2ERKSt10shared_ptrINS_4NodeEERKNS_5ShapeERKNS_7StridesE
libngraph.so.0.22:_ZN6ngraph2op7MaxPoolC2ERKSt10shared_ptrINS_4NodeEERKNS_5ShapeERKNS_7StridesES9_S9_
libngraph.so.0.22:_ZN6ngraph2op7MaxPoolC2ERKSt10shared_ptrINS_4NodeEERKNS_5ShapeERKNS_7StridesES9_S9_RKNS0_7PadTypeE
libngraph.so.0.22:_ZN6ngraph2op7MaxPoolC2ERKSt10shared_ptrINS_4NodeEERKNS_5ShapeERKNS_7StridesES9_S9_RKNS0_7PadTypeEb
libngraph.so.0.22:_ZN6ngraph2op7Maximum17generate_adjointsERNS_8autodiff8AdjointsERKSt6vectorISt10shared_ptrINS_4NodeEESaIS8_EE
libngraph.so.0.22:_ZN6ngraph2op7MaximumC1ERKSt10shared_ptrINS_4NodeEES6_RKNS0_17AutoBroadcastSpecE
libngraph.so.0.22:_ZN6ngraph2op7MaximumC2ERKSt10shared_ptrINS_4NodeEES6_RKNS0_17AutoBroadcastSpecE
libngraph.so.0.22:_ZN6ngraph2op7Minimum17generate_adjointsERNS_8autodiff8AdjointsERKSt6vectorISt10shared_ptrINS_4NodeEESaIS8_EE
libngraph.so.0.22:_ZN6ngraph2op7MinimumC1ERKSt10shared_ptrINS_4NodeEES6_RKNS0_17AutoBroadcastSpecE
libngraph.so.0.22:_ZN6ngraph2op7MinimumC2ERKSt10shared_ptrINS_4NodeEES6_RKNS0_17AutoBroadcastSpecE
libngraph.so.0.22:_ZN6ngraph2op7ProductC1ERKNS_6OutputINS_4NodeEEERKNS_7AxisSetE
libngraph.so.0.22:_ZN6ngraph2op7ProductC1ERKNS_6OutputINS_4NodeEEES6_
libngraph.so.0.22:_ZN6ngraph2op7ProductC1Ev
libngraph.so.0.22:_ZN6ngraph2op7ProductC2ERKNS_6OutputINS_4NodeEEERKNS_7AxisSetE
libngraph.so.0.22:_ZN6ngraph2op7ProductC2ERKNS_6OutputINS_4NodeEEES6_
libngraph.so.0.22:_ZN6ngraph2op7ProductC2Ev
libngraph.so.0.22:_ZN6ngraph2op7Reshape17generate_adjointsERNS_8autodiff8AdjointsERKSt6vectorISt10shared_ptrINS_4NodeEESaIS8_EE
libngraph.so.0.22:_ZN6ngraph2op7Reshape24validate_and_infer_typesEv
libngraph.so.0.22:_ZN6ngraph2op7ReshapeC1ERKSt10shared_ptrINS_4NodeEERKNS_10AxisVectorERKNS_5ShapeE
libngraph.so.0.22:_ZN6ngraph2op7ReshapeC2ERKSt10shared_ptrINS_4NodeEERKNS_10AxisVectorERKNS_5ShapeE
libngraph.so.0.22:_ZN6ngraph2op7Reverse17generate_adjointsERNS_8autodiff8AdjointsERKSt6vectorISt10shared_ptrINS_4NodeEESaIS8_EE
libngraph.so.0.22:_ZN6ngraph2op7Reverse24validate_and_infer_typesEv
libngraph.so.0.22:_ZN6ngraph2op7ReverseC1ERKSt10shared_ptrINS_4NodeEERKNS_7AxisSetE
libngraph.so.0.22:_ZN6ngraph2op7ReverseC2ERKSt10shared_ptrINS_4NodeEERKNS_7AxisSetE
libngraph.so.0.22:_ZN6ngraph2op7ShapeOf24validate_and_infer_typesEv
libngraph.so.0.22:_ZN6ngraph2op7ShapeOfC1ERKSt10shared_ptrINS_4NodeEE
libngraph.so.0.22:_ZN6ngraph2op7ShapeOfC2ERKSt10shared_ptrINS_4NodeEE
libngraph.so.0.22:_ZN6ngraph2op7Sigmoid17generate_adjointsERNS_8autodiff8AdjointsERKSt6vectorISt10shared_ptrINS_4NodeEESaIS8_EE
libngraph.so.0.22:_ZN6ngraph2op7SigmoidC1ESt10shared_ptrINS_4NodeEE
libngraph.so.0.22:_ZN6ngraph2op7SigmoidC2ESt10shared_ptrINS_4NodeEE
libngraph.so.0.22:_ZN6ngraph2op7Softmax17generate_adjointsERNS_8autodiff8AdjointsERKSt6vectorISt10shared_ptrINS_4NodeEESaIS8_EE
libngraph.so.0.22:_ZN6ngraph2op7SoftmaxC1ERKSt10shared_ptrINS_4NodeEERKNS_7AxisSetE
libngraph.so.0.22:_ZN6ngraph2op7SoftmaxC2ERKSt10shared_ptrINS_4NodeEERKNS_7AxisSetE
libngraph.so.0.22:_ZN6ngraph2op7SqueezeC1ERKSt10shared_ptrINS_4NodeEES6_
libngraph.so.0.22:_ZN6ngraph2op7SqueezeC2ERKSt10shared_ptrINS_4NodeEES6_
libngraph.so.0.22:_ZN6ngraph2op8Constant15write_to_bufferINSt7__cxx1112basic_stringIcSt11char_traitsIcESaIcEEEEEvRKNS_7element4TypeERKNS_5ShapeERKSt6vectorIT_SaISH_EEPvm
libngraph.so.0.22:_ZN6ngraph2op8ConstantD0Ev
libngraph.so.0.22:_ZN6ngraph2op8ConstantD1Ev
libngraph.so.0.22:_ZN6ngraph2op8ConstantD2Ev
libngraph.so.0.22:_ZN6ngraph2op8DynSlice17generate_adjointsERNS_8autodiff8AdjointsERKSt6vectorISt10shared_ptrINS_4NodeEESaIS8_EE
libngraph.so.0.22:_ZN6ngraph2op8DynSlice24validate_and_infer_typesEv
libngraph.so.0.22:_ZN6ngraph2op8DynSliceC1ERKSt10shared_ptrINS_4NodeEES6_S6_S6_RKNS_7AxisSetES9_S9_S9_S9_
libngraph.so.0.22:_ZN6ngraph2op8DynSliceC2ERKSt10shared_ptrINS_4NodeEES6_S6_S6_RKNS_7AxisSetES9_S9_S9_S9_
libngraph.so.0.22:_ZN6ngraph2op8GatherND24validate_and_infer_typesEv
libngraph.so.0.22:_ZN6ngraph2op8Multiply17generate_adjointsERNS_8autodiff8AdjointsERKSt6vectorISt10shared_ptrINS_4NodeEESaIS8_EE
libngraph.so.0.22:_ZN6ngraph2op8MultiplyC1ERKSt10shared_ptrINS_4NodeEES6_RKNS0_17AutoBroadcastSpecE
libngraph.so.0.22:_ZN6ngraph2op8MultiplyC2ERKSt10shared_ptrINS_4NodeEES6_RKNS0_17AutoBroadcastSpecE
libngraph.so.0.22:_ZN6ngraph2op8Negative17generate_adjointsERNS_8autodiff8AdjointsERKSt6vectorISt10shared_ptrINS_4NodeEESaIS8_EE
libngraph.so.0.22:_ZN6ngraph2op8NegativeC1ERKSt10shared_ptrINS_4NodeEE
libngraph.so.0.22:_ZN6ngraph2op8NegativeC2ERKSt10shared_ptrINS_4NodeEE
libngraph.so.0.22:_ZN6ngraph2op8NotEqualC1ERKSt10shared_ptrINS_4NodeEES6_RKNS0_17AutoBroadcastSpecE
libngraph.so.0.22:_ZN6ngraph2op8NotEqualC2ERKSt10shared_ptrINS_4NodeEES6_RKNS0_17AutoBroadcastSpecE
libngraph.so.0.22:_ZN6ngraph2op8PriorBox24validate_and_infer_typesEv
libngraph.so.0.22:_ZN6ngraph2op8PriorBoxC1ERKSt10shared_ptrINS_4NodeEES6_RKNS0_13PriorBoxAttrsE
libngraph.so.0.22:_ZN6ngraph2op8PriorBoxC2ERKSt10shared_ptrINS_4NodeEES6_RKNS0_13PriorBoxAttrsE
libngraph.so.0.22:_ZN6ngraph2op8Proposal24validate_and_infer_typesEv
libngraph.so.0.22:_ZN6ngraph2op8ProposalC1ERKSt10shared_ptrINS_4NodeEES6_S6_RKNS0_13ProposalAttrsE
libngraph.so.0.22:_ZN6ngraph2op8ProposalC2ERKSt10shared_ptrINS_4NodeEES6_S6_RKNS0_13ProposalAttrsE
libngraph.so.0.22:_ZN6ngraph2op8Quantize17generate_adjointsERNS_8autodiff8AdjointsERKSt6vectorISt10shared_ptrINS_4NodeEESaIS8_EE
libngraph.so.0.22:_ZN6ngraph2op8Quantize24validate_and_infer_typesEv
libngraph.so.0.22:_ZN6ngraph2op8QuantizeC1ERKSt10shared_ptrINS_4NodeEES6_S6_RKNS_7element4TypeERKNS_7AxisSetENS1_9RoundModeE
libngraph.so.0.22:_ZN6ngraph2op8QuantizeC2ERKSt10shared_ptrINS_4NodeEES6_S6_RKNS_7element4TypeERKNS_7AxisSetENS1_9RoundModeE
libngraph.so.0.22:_ZN6ngraph2op8Subtract17generate_adjointsERNS_8autodiff8AdjointsERKSt6vectorISt10shared_ptrINS_4NodeEESaIS8_EE
libngraph.so.0.22:_ZN6ngraph2op8SubtractC1ERKSt10shared_ptrINS_4NodeEES6_RKNS0_17AutoBroadcastSpecE
libngraph.so.0.22:_ZN6ngraph2op8SubtractC2ERKSt10shared_ptrINS_4NodeEES6_RKNS0_17AutoBroadcastSpecE
libngraph.so.0.22:_ZN6ngraph2op9AllReduce24validate_and_infer_typesEv
libngraph.so.0.22:_ZN6ngraph2op9AllReduceC1ERKSt10shared_ptrINS_4NodeEE
libngraph.so.0.22:_ZN6ngraph2op9AllReduceC1Ev
libngraph.so.0.22:_ZN6ngraph2op9AllReduceC2ERKSt10shared_ptrINS_4NodeEE
libngraph.so.0.22:_ZN6ngraph2op9AllReduceC2Ev
libngraph.so.0.22:_ZN6ngraph2op9Broadcast17generate_adjointsERNS_8autodiff8AdjointsERKSt6vectorISt10shared_ptrINS_4NodeEESaIS8_EE
libngraph.so.0.22:_ZN6ngraph2op9Broadcast24validate_and_infer_typesEv
libngraph.so.0.22:_ZN6ngraph2op9BroadcastC1ERKNSt7__cxx1112basic_stringIcSt11char_traitsIcESaIcEEERKSt6vectorISt10shared_ptrINS_4NodeEESaISD_EERKNS_5ShapeERKNS_7AxisSetE
libngraph.so.0.22:_ZN6ngraph2op9BroadcastC1ERKSt10shared_ptrINS_4NodeEERKNS_5ShapeERKNS_7AxisSetE
libngraph.so.0.22:_ZN6ngraph2op9BroadcastC2ERKNSt7__cxx1112basic_stringIcSt11char_traitsIcESaIcEEERKSt6vectorISt10shared_ptrINS_4NodeEESaISD_EERKNS_5ShapeERKNS_7AxisSetE
libngraph.so.0.22:_ZN6ngraph2op9BroadcastC2ERKSt10shared_ptrINS_4NodeEERKNS_5ShapeERKNS_7AxisSetE
libngraph.so.0.22:_ZN6ngraph2op9GreaterEqC1ERKSt10shared_ptrINS_4NodeEES6_RKNS0_17AutoBroadcastSpecE
libngraph.so.0.22:_ZN6ngraph2op9GreaterEqC2ERKSt10shared_ptrINS_4NodeEES6_RKNS0_17AutoBroadcastSpecE
libngraph.so.0.22:_ZN6ngraph2op9LeakyReluC1ERKSt10shared_ptrINS_4NodeEES6_
libngraph.so.0.22:_ZN6ngraph2op9LeakyReluC2ERKSt10shared_ptrINS_4NodeEES6_
libngraph.so.0.22:_ZN6ngraph2op9Normalize28pre_validate_and_infer_typesEv
libngraph.so.0.22:_ZN6ngraph2op9NormalizeC1ERKSt10shared_ptrINS_4NodeEES6_bbf
libngraph.so.0.22:_ZN6ngraph2op9NormalizeC2ERKSt10shared_ptrINS_4NodeEES6_bbf
libngraph.so.0.22:_ZN6ngraph2op9Parameter17generate_adjointsERNS_8autodiff8AdjointsERKSt6vectorISt10shared_ptrINS_4NodeEESaIS8_EE
libngraph.so.0.22:_ZN6ngraph2op9Parameter24validate_and_infer_typesEv
libngraph.so.0.22:_ZN6ngraph2op9Parameter25set_is_relevant_to_shapesEb
libngraph.so.0.22:_ZN6ngraph2op9ParameterC1ERKNS_7element4TypeERKNS_12PartialShapeEb
libngraph.so.0.22:_ZN6ngraph2op9ParameterC2ERKNS_7element4TypeERKNS_12PartialShapeEb
libngraph.so.0.22:_ZN6ngraph2op9ReorgYolo24validate_and_infer_typesEv
libngraph.so.0.22:_ZN6ngraph2op9ReorgYoloC1ERKSt10shared_ptrINS_4NodeEERKNS_7StridesE
libngraph.so.0.22:_ZN6ngraph2op9ReorgYoloC2ERKSt10shared_ptrINS_4NodeEERKNS_7StridesE
libngraph.so.0.22:_ZN6ngraph2op9Transpose17generate_adjointsERNS_8autodiff8AdjointsERKSt6vectorISt10shared_ptrINS_4NodeEESaIS8_EE
libngraph.so.0.22:_ZN6ngraph2op9Transpose24validate_and_infer_typesEv
libngraph.so.0.22:_ZN6ngraph2op9TransposeC1ERKSt10shared_ptrINS_4NodeEES6_
libngraph.so.0.22:_ZN6ngraph2op9TransposeC2ERKSt10shared_ptrINS_4NodeEES6_
libngraph.so.0.22:_ZN6ngraph2op9Unsqueeze28pre_validate_and_infer_typesEv
libngraph.so.0.22:_ZN6ngraph2op9UnsqueezeC1ERKSt10shared_ptrINS_4NodeEES6_
libngraph.so.0.22:_ZN6ngraph2op9UnsqueezeC2ERKSt10shared_ptrINS_4NodeEES6_
libngraph.so.0.22:_ZN6ngraph31to_cplusplus_sourcecode_literalB5cxx11Eb
libngraph.so.0.22:_ZN6ngraph32get_permutation_to_default_orderERKNS_10AxisVectorE
libngraph.so.0.22:_ZN6ngraph34node_validation_failure_loc_stringB5cxx11EPKNS_4NodeE
libngraph.so.0.22:_ZN6ngraph37infer_windowed_reduction_output_shapeEPKNS_4NodeERKNS_12PartialShapeERKNS_7StridesERKNS_14CoordinateDiffESB_S5_S8_S8_bb
libngraph.so.0.22:_ZN6ngraph4Node11get_outputsEv
libngraph.so.0.22:_ZN6ngraph4Node11safe_deleteERSt6vectorISt10shared_ptrIS0_ESaIS3_EEb
libngraph.so.0.22:_ZN6ngraph4Node12set_argumentEmRKNS_6OutputIS0_EE
libngraph.so.0.22:_ZN6ngraph4Node13set_argumentsERKSt6vectorINS_6OutputIS0_EESaIS3_EE
libngraph.so.0.22:_ZN6ngraph4Node13set_argumentsERKSt6vectorISt10shared_ptrIS0_ESaIS3_EE
libngraph.so.0.22:_ZN6ngraph4Node13set_placementENS_9PlacementE
libngraph.so.0.22:_ZN6ngraph4Node15set_output_sizeEm
libngraph.so.0.22:_ZN6ngraph4Node15set_output_typeEmRKNS_7element4TypeERKNS_12PartialShapeE
libngraph.so.0.22:_ZN6ngraph4Node17set_friendly_nameERKNSt7__cxx1112basic_stringIcSt11char_traitsIcESaIcEEE
libngraph.so.0.22:_ZN6ngraph4Node18add_provenance_tagERKNSt7__cxx1112basic_stringIcSt11char_traitsIcESaIcEEE
libngraph.so.0.22:_ZN6ngraph4Node19set_placement_indexEm
libngraph.so.0.22:_ZN6ngraph4Node20get_input_descriptorEm
libngraph.so.0.22:_ZN6ngraph4Node21get_output_descriptorEm
libngraph.so.0.22:_ZN6ngraph4Node21remove_provenance_tagERKNSt7__cxx1112basic_stringIcSt11char_traitsIcESaIcEEE
libngraph.so.0.22:_ZN6ngraph4Node22add_control_dependencyESt10shared_ptrIS0_E
libngraph.so.0.22:_ZN6ngraph4Node24validate_and_infer_typesEv
libngraph.so.0.22:_ZN6ngraph4Node26merge_provenance_tags_fromERKSt10shared_ptrIKS0_E
libngraph.so.0.22:_ZN6ngraph4Node30set_input_is_relevant_to_shapeEmb
libngraph.so.0.22:_ZN6ngraph4Node30set_input_is_relevant_to_valueEmb
libngraph.so.0.22:_ZN6ngraph4Node32delayed_validate_and_infer_typesEv
libngraph.so.0.22:_ZN6ngraph4Node35validate_and_infer_elementwise_argsERKNS_2op17AutoBroadcastSpecE
libngraph.so.0.22:_ZN6ngraph4Node36constructor_validate_and_infer_typesEv
libngraph.so.0.22:_ZN6ngraph4Node38validate_and_infer_elementwise_logicalERKNS_2op17AutoBroadcastSpecE
libngraph.so.0.22:_ZN6ngraph4Node41validate_and_infer_elementwise_arithmeticERKNS_2op17AutoBroadcastSpecE
libngraph.so.0.22:_ZN6ngraph4NodeC1ERKNSt7__cxx1112basic_stringIcSt11char_traitsIcESaIcEEERKSt6vectorISt10shared_ptrIS0_ESaISB_EEm
libngraph.so.0.22:_ZN6ngraph4NodeC1ERKSt6vectorINS_6OutputIS0_EESaIS3_EEm
libngraph.so.0.22:_ZN6ngraph4NodeC1ERKSt6vectorISt10shared_ptrIS0_ESaIS3_EEm
libngraph.so.0.22:_ZN6ngraph4NodeC1Em
libngraph.so.0.22:_ZN6ngraph4NodeC2ERKNSt7__cxx1112basic_stringIcSt11char_traitsIcESaIcEEERKSt6vectorISt10shared_ptrIS0_ESaISB_EEm
libngraph.so.0.22:_ZN6ngraph4NodeC2ERKSt6vectorINS_6OutputIS0_EESaIS3_EEm
libngraph.so.0.22:_ZN6ngraph4NodeC2ERKSt6vectorISt10shared_ptrIS0_ESaIS3_EEm
libngraph.so.0.22:_ZN6ngraph4NodeC2Em
libngraph.so.0.22:_ZN6ngraph4NodeD0Ev
libngraph.so.0.22:_ZN6ngraph4NodeD1Ev
libngraph.so.0.22:_ZN6ngraph4NodeD2Ev
libngraph.so.0.22:_ZN6ngraph4cpio6Header4readERSi
libngraph.so.0.22:_ZN6ngraph4cpio6Header5writeERSoRKNSt7__cxx1112basic_stringIcSt11char_traitsIcESaIcEEEj
libngraph.so.0.22:_ZN6ngraph4cpio6Reader13get_file_infoEv
libngraph.so.0.22:_ZN6ngraph4cpio6Reader4openERKNSt7__cxx1112basic_stringIcSt11char_traitsIcESaIcEEE
libngraph.so.0.22:_ZN6ngraph4cpio6Reader4openERSi
libngraph.so.0.22:_ZN6ngraph4cpio6Reader4readERKNS0_8FileInfoE
libngraph.so.0.22:_ZN6ngraph4cpio6Reader4readERKNSt7__cxx1112basic_stringIcSt11char_traitsIcESaIcEEEPvm
libngraph.so.0.22:_ZN6ngraph4cpio6Reader5closeEv
libngraph.so.0.22:_ZN6ngraph4cpio6ReaderC1ERKNSt7__cxx1112basic_stringIcSt11char_traitsIcESaIcEEE
libngraph.so.0.22:_ZN6ngraph4cpio6ReaderC1ERSi
libngraph.so.0.22:_ZN6ngraph4cpio6ReaderC1Ev
libngraph.so.0.22:_ZN6ngraph4cpio6ReaderC2ERKNSt7__cxx1112basic_stringIcSt11char_traitsIcESaIcEEE
libngraph.so.0.22:_ZN6ngraph4cpio6ReaderC2ERSi
libngraph.so.0.22:_ZN6ngraph4cpio6ReaderC2Ev
libngraph.so.0.22:_ZN6ngraph4cpio6ReaderD1Ev
libngraph.so.0.22:_ZN6ngraph4cpio6ReaderD2Ev
libngraph.so.0.22:_ZN6ngraph4cpio6Writer4openERKNSt7__cxx1112basic_stringIcSt11char_traitsIcESaIcEEE
libngraph.so.0.22:_ZN6ngraph4cpio6Writer4openERSo
libngraph.so.0.22:_ZN6ngraph4cpio6Writer5writeERKNSt7__cxx1112basic_stringIcSt11char_traitsIcESaIcEEEPKvj
libngraph.so.0.22:_ZN6ngraph4cpio6WriterC1ERKNSt7__cxx1112basic_stringIcSt11char_traitsIcESaIcEEE
libngraph.so.0.22:_ZN6ngraph4cpio6WriterC1ERSo
libngraph.so.0.22:_ZN6ngraph4cpio6WriterC1Ev
libngraph.so.0.22:_ZN6ngraph4cpio6WriterC2ERKNSt7__cxx1112basic_stringIcSt11char_traitsIcESaIcEEE
libngraph.so.0.22:_ZN6ngraph4cpio6WriterC2ERSo
libngraph.so.0.22:_ZN6ngraph4cpio6WriterC2Ev
libngraph.so.0.22:_ZN6ngraph4cpio6WriterD1Ev
libngraph.so.0.22:_ZN6ngraph4cpio6WriterD2Ev
libngraph.so.0.22:_ZN6ngraph4cpio7is_cpioERKNSt7__cxx1112basic_stringIcSt11char_traitsIcESaIcEEE
libngraph.so.0.22:_ZN6ngraph4cpio7is_cpioERSi
libngraph.so.0.22:_ZN6ngraph4dumpERSoPKvm
libngraph.so.0.22:_ZN6ngraph4pass10CoreFusion14construct_reluEv
libngraph.so.0.22:_ZN6ngraph4pass10CoreFusion17construct_sigmoidEv
libngraph.so.0.22:_ZN6ngraph4pass10CoreFusion19construct_conv_biasEv
libngraph.so.0.22:_ZN6ngraph4pass10CoreFusion23construct_conv_bias_addEv
libngraph.so.0.22:_ZN6ngraph4pass10CoreFusion23construct_sigmoid_bpropEv
libngraph.so.0.22:_ZN6ngraph4pass10CoreFusion26construct_zero_padded_convEv
libngraph.so.0.22:_ZN6ngraph4pass10CoreFusion27construct_folded_batch_normEv
libngraph.so.0.22:_ZN6ngraph4pass10CoreFusion27construct_reshape_broadcastEv
libngraph.so.0.22:_ZN6ngraph4pass10CoreFusion29construct_conv_affine_foldingEv
libngraph.so.0.22:_ZN6ngraph4pass10CoreFusion32construct_optimized_strided_convEv
libngraph.so.0.22:_ZN6ngraph4pass10CoreFusion33construct_reshape_softmax_reshapeEv
libngraph.so.0.22:_ZN6ngraph4pass10CoreFusion35construct_zero_padded_reshaped_convEv
libngraph.so.0.22:_ZN6ngraph4pass10CoreFusion43construct_zero_padded_conv_backprop_filtersEv
libngraph.so.0.22:_ZN6ngraph4pass10DumpSorted13run_on_moduleERSt6vectorISt10shared_ptrINS_8FunctionEESaIS5_EE
libngraph.so.0.22:_ZN6ngraph4pass10DumpSortedC1ERKNSt7__cxx1112basic_stringIcSt11char_traitsIcESaIcEEE
libngraph.so.0.22:_ZN6ngraph4pass10DumpSortedC2ERKNSt7__cxx1112basic_stringIcSt11char_traitsIcESaIcEEE
libngraph.so.0.22:_ZN6ngraph4pass10PassConfig15set_pass_enableERKNSt7__cxx1112basic_stringIcSt11char_traitsIcESaIcEEEb
libngraph.so.0.22:_ZN6ngraph4pass10PassConfig18set_pass_attributeERKNSt7__cxx1112basic_stringIcSt11char_traitsIcESaIcEEEb
libngraph.so.0.22:_ZN6ngraph4pass10PassConfigC1Ev
libngraph.so.0.22:_ZN6ngraph4pass10PassConfigC2Ev
libngraph.so.0.22:_ZN6ngraph4pass11BatchFusion15run_on_functionESt10shared_ptrINS_8FunctionEE
libngraph.so.0.22:_ZN6ngraph4pass12GraphRewrite11add_matcherERKSt10shared_ptrINS_7pattern7MatcherEERKSt8functionIFbRS4_EE
libngraph.so.0.22:_ZN6ngraph4pass12GraphRewrite11add_matcherERKSt10shared_ptrINS_7pattern7MatcherEERKSt8functionIFbRS4_EERKNS_8EnumMaskINS0_12PassPropertyEEE
libngraph.so.0.22:_ZN6ngraph4pass12GraphRewrite15run_on_functionESt10shared_ptrINS_8FunctionEE
libngraph.so.0.22:_ZN6ngraph4pass12ManagerState13get_functionsEv
libngraph.so.0.22:_ZN6ngraph4pass12MemoryLayout15run_on_functionESt10shared_ptrINS_8FunctionEE
libngraph.so.0.22:_ZN6ngraph4pass12MemoryLayoutC1Emb
libngraph.so.0.22:_ZN6ngraph4pass12MemoryLayoutC2Emb
libngraph.so.0.22:_ZN6ngraph4pass13MemoryManager18no_reuse_allocatorEm
libngraph.so.0.22:_ZN6ngraph4pass13MemoryManager4dumpERSo
libngraph.so.0.22:_ZN6ngraph4pass13MemoryManager4freeEm
libngraph.so.0.22:_ZN6ngraph4pass13MemoryManager4nodeC1EmNS1_11block_stateE
libngraph.so.0.22:_ZN6ngraph4pass13MemoryManager4nodeC2EmNS1_11block_stateE
libngraph.so.0.22:_ZN6ngraph4pass13MemoryManager5alignEmm
libngraph.so.0.22:_ZN6ngraph4pass13MemoryManager8allocateEm
libngraph.so.0.22:_ZN6ngraph4pass13MemoryManager8best_fitEm
libngraph.so.0.22:_ZN6ngraph4pass13MemoryManager9first_fitEm
libngraph.so.0.22:_ZN6ngraph4pass13MemoryManagerC1Emb
libngraph.so.0.22:_ZN6ngraph4pass13MemoryManagerC2Emb
libngraph.so.0.22:_ZN6ngraph4pass13Serialization13run_on_moduleERSt6vectorISt10shared_ptrINS_8FunctionEESaIS5_EE
libngraph.so.0.22:_ZN6ngraph4pass13SerializationC1ERKNSt7__cxx1112basic_stringIcSt11char_traitsIcESaIcEEE
libngraph.so.0.22:_ZN6ngraph4pass13SerializationC2ERKNSt7__cxx1112basic_stringIcSt11char_traitsIcESaIcEEE
libngraph.so.0.22:_ZN6ngraph4pass13ValidateGraph13run_on_moduleERSt6vectorISt10shared_ptrINS_8FunctionEESaIS5_EE
libngraph.so.0.22:_ZN6ngraph4pass13ValidateGraph19validate_parametersERKNS_8FunctionE
libngraph.so.0.22:_ZN6ngraph4pass13VisualizeTree13get_node_nameB5cxx11ESt10shared_ptrINS_4NodeEE
libngraph.so.0.22:_ZN6ngraph4pass13VisualizeTree13run_on_moduleERSt6vectorISt10shared_ptrINS_8FunctionEESaIS5_EE
libngraph.so.0.22:_ZN6ngraph4pass13VisualizeTree14add_attributesB5cxx11ESt10shared_ptrINS_4NodeEE
libngraph.so.0.22:_ZN6ngraph4pass13VisualizeTree14get_attributesB5cxx11ESt10shared_ptrINS_4NodeEE
libngraph.so.0.22:_ZN6ngraph4pass13VisualizeTreeC1ERKNSt7__cxx1112basic_stringIcSt11char_traitsIcESaIcEEESt8functionIFvRKNS_4NodeERSt6vectorIS7_SaIS7_EEEEb
libngraph.so.0.22:_ZN6ngraph4pass13VisualizeTreeC2ERKNSt7__cxx1112basic_stringIcSt11char_traitsIcESaIcEEESt8functionIFvRKNS_4NodeERSt6vectorIS7_SaIS7_EEEEb
libngraph.so.0.22:_ZN6ngraph4pass14DynElimination19construct_broadcastEv
libngraph.so.0.22:_ZN6ngraph4pass14DynElimination19construct_transposeEv
libngraph.so.0.22:_ZN6ngraph4pass14DynElimination21construct_dyn_reshapeEv
libngraph.so.0.22:_ZN6ngraph4pass14DynEliminationC1Ev
libngraph.so.0.22:_ZN6ngraph4pass14DynEliminationC2Ev
libngraph.so.0.22:_ZN6ngraph4pass14NopElimination15run_on_functionESt10shared_ptrINS_8FunctionEE
libngraph.so.0.22:_ZN6ngraph4pass14ReshapeSinking15run_on_functionESt10shared_ptrINS_8FunctionEE
libngraph.so.0.22:_ZN6ngraph4pass14ShapeRelevance15run_on_functionESt10shared_ptrINS_8FunctionEE
libngraph.so.0.22:_ZN6ngraph4pass15ConstantFolding22construct_constant_padEv
libngraph.so.0.22:_ZN6ngraph4pass15ConstantFolding24construct_constant_unaryEv
libngraph.so.0.22:_ZN6ngraph4pass15ConstantFolding25construct_constant_binaryEv
libngraph.so.0.22:_ZN6ngraph4pass15ConstantFolding26construct_constant_convertEv
libngraph.so.0.22:_ZN6ngraph4pass15ConstantFolding26construct_constant_reshapeEv
libngraph.so.0.22:_ZN6ngraph4pass15ConstantFolding27construct_constant_quantizeEv
libngraph.so.0.22:_ZN6ngraph4pass15ConstantFolding27construct_constant_shape_ofEv
libngraph.so.0.22:_ZN6ngraph4pass15ConstantFolding28construct_constant_broadcastEv
libngraph.so.0.22:_ZN6ngraph4pass15ConstantFolding29construct_constant_dequantizeEv
libngraph.so.0.22:_ZN6ngraph4pass15LikeReplacement15run_on_functionESt10shared_ptrINS_8FunctionEE
libngraph.so.0.22:_ZN6ngraph4pass15MemoryVisualize12memory_usageESt10shared_ptrINS_4NodeEE
libngraph.so.0.22:_ZN6ngraph4pass15MemoryVisualize13run_on_moduleERSt6vectorISt10shared_ptrINS_8FunctionEESaIS5_EE
libngraph.so.0.22:_ZN6ngraph4pass15MemoryVisualize14draw_histogramERSoRKNSt7__cxx114listISt10shared_ptrINS_4NodeEESaIS7_EEE
libngraph.so.0.22:_ZN6ngraph4pass15MemoryVisualize15find_largest_opERKNSt7__cxx114listISt10shared_ptrINS_4NodeEESaIS6_EEE
libngraph.so.0.22:_ZN6ngraph4pass15MemoryVisualize16memory_footprintERKNSt7__cxx114listISt10shared_ptrINS_4NodeEESaIS6_EEE
libngraph.so.0.22:_ZN6ngraph4pass15MemoryVisualize16memory_footprintESt10shared_ptrINS_4NodeEE
libngraph.so.0.22:_ZN6ngraph4pass15MemoryVisualize17compute_op_weightESt10shared_ptrINS_4NodeEE
libngraph.so.0.22:_ZN6ngraph4pass15MemoryVisualize17draw_op_influenceERSoRKNSt7__cxx114listISt10shared_ptrINS_4NodeEESaIS7_EEE
libngraph.so.0.22:_ZN6ngraph4pass15MemoryVisualize18draw_tensor_weightERSoRKNSt7__cxx114listISt10shared_ptrINS_4NodeEESaIS7_EEE
libngraph.so.0.22:_ZN6ngraph4pass15MemoryVisualizeC1ERKNSt7__cxx1112basic_stringIcSt11char_traitsIcESaIcEEE
libngraph.so.0.22:_ZN6ngraph4pass15MemoryVisualizeC2ERKNSt7__cxx1112basic_stringIcSt11char_traitsIcESaIcEEE
libngraph.so.0.22:_ZN6ngraph4pass16SelfConcatFusion15run_on_functionESt10shared_ptrINS_8FunctionEE
libngraph.so.0.22:_ZN6ngraph4pass16SelfConcatFusion16replace_patternsERKSt6vectorISt10shared_ptrINS_4NodeEESaIS5_EE
libngraph.so.0.22:_ZN6ngraph4pass16SelfConcatFusion25construct_concat_patternsERKSt10shared_ptrINS_7pattern7MatcherEERKS2_INS3_2op5LabelEERKS2_INS_4NodeEE
libngraph.so.0.22:_ZN6ngraph4pass16SelfConcatFusion29update_concat_pattern_vectorsERKSt10shared_ptrINS_4NodeEE
libngraph.so.0.22:_ZN6ngraph4pass16SelfConcatFusion31remove_single_concat_op_patternEv
libngraph.so.0.22:_ZN6ngraph4pass17ConcatElimination28construct_concat_eliminationEv
libngraph.so.0.22:_ZN6ngraph4pass18ReshapeElimination27construct_reshapex2_patternEv
libngraph.so.0.22:_ZN6ngraph4pass18ReshapeElimination31construct_dot_transpose_patternEv
libngraph.so.0.22:_ZN6ngraph4pass18ReshapeElimination34construct_identity_reshape_patternEv
libngraph.so.0.22:_ZN6ngraph4pass19ConstantToBroadcast11run_on_nodeESt10shared_ptrINS_4NodeEE
libngraph.so.0.22:_ZN6ngraph4pass20FusedOpDecomposition11run_on_nodeESt10shared_ptrINS_4NodeEE
libngraph.so.0.22:_ZN6ngraph4pass20FusedOpDecompositionC1ESt8functionIFbRKNS_4NodeEEE
libngraph.so.0.22:_ZN6ngraph4pass20FusedOpDecompositionC2ESt8functionIFbRKNS_4NodeEEE
libngraph.so.0.22:_ZN6ngraph4pass21PropagateCacheability15run_on_functionESt10shared_ptrINS_8FunctionEE
libngraph.so.0.22:_ZN6ngraph4pass21RecurrentGraphRewrite11add_matcherERKSt10shared_ptrINS_7pattern16RecurrentMatcherEERKSt8functionIFbRS4_EE
libngraph.so.0.22:_ZN6ngraph4pass21RecurrentGraphRewrite11add_matcherERKSt10shared_ptrINS_7pattern16RecurrentMatcherEERKSt8functionIFbRS4_EERKNS_8EnumMaskINS0_12PassPropertyEEE
libngraph.so.0.22:_ZN6ngraph4pass21RecurrentGraphRewrite15run_on_functionESt10shared_ptrINS_8FunctionEE
libngraph.so.0.22:_ZN6ngraph4pass23AlgebraicSimplification15run_on_functionESt10shared_ptrINS_8FunctionEE
libngraph.so.0.22:_ZN6ngraph4pass23get_no_fan_out_functionEv
libngraph.so.0.22:_ZN6ngraph4pass24CommonFunctionCollection13run_on_moduleERSt6vectorISt10shared_ptrINS_8FunctionEESaIS5_EE
libngraph.so.0.22:_ZN6ngraph4pass24CommonFunctionCollection20create_function_nameB5cxx11ERKNS_4NodeE
libngraph.so.0.22:_ZN6ngraph4pass24CommonFunctionCollectionC1ESt8functionIFNSt7__cxx1112basic_stringIcSt11char_traitsIcESaIcEEERNS_4NodeES8_EERSt13unordered_mapIPS9_SE_St4hashISE_ESt8equal_toISE_ESaISt4pairIKSE_SE_EEERS8_
libngraph.so.0.22:_ZN6ngraph4pass24CommonFunctionCollectionC2ESt8functionIFNSt7__cxx1112basic_stringIcSt11char_traitsIcESaIcEEERNS_4NodeES8_EERSt13unordered_mapIPS9_SE_St4hashISE_ESt8equal_toISE_ESaISt4pairIKSE_SE_EEERS8_
libngraph.so.0.22:_ZN6ngraph4pass24CommonFunctionCollectionD0Ev
libngraph.so.0.22:_ZN6ngraph4pass24CommonFunctionCollectionD1Ev
libngraph.so.0.22:_ZN6ngraph4pass24CommonFunctionCollectionD2Ev
libngraph.so.0.22:_ZN6ngraph4pass24PrefixReshapeEliminationC1Ev
libngraph.so.0.22:_ZN6ngraph4pass24PrefixReshapeEliminationC2Ev
libngraph.so.0.22:_ZN6ngraph4pass24ZeroDimTensorElimination15run_on_functionESt10shared_ptrINS_8FunctionEE
libngraph.so.0.22:_ZN6ngraph4pass27GetOutputElementElimination11run_on_nodeESt10shared_ptrINS_4NodeEE
libngraph.so.0.22:_ZN6ngraph4pass27RecurrentReshapeElimination27construct_recurrent_reshapeEv
libngraph.so.0.22:_ZN6ngraph4pass28ImplicitBroadcastElimination11run_on_nodeESt10shared_ptrINS_4NodeEE
libngraph.so.0.22:_ZN6ngraph4pass30CommonSubexpressionElimination15run_on_functionESt10shared_ptrINS_8FunctionEE
libngraph.so.0.22:_ZN6ngraph4pass7Manager10run_passesESt10shared_ptrINS_8FunctionEEb
libngraph.so.0.22:_ZN6ngraph4pass7Manager25initialize_default_passesEv
libngraph.so.0.22:_ZN6ngraph4pass7Manager9get_stateEv
libngraph.so.0.22:_ZN6ngraph4pass7ManagerC1Ev
libngraph.so.0.22:_ZN6ngraph4pass7ManagerC2Ev
libngraph.so.0.22:_ZN6ngraph4pass7ManagerD1Ev
libngraph.so.0.22:_ZN6ngraph4pass7ManagerD2Ev
libngraph.so.0.22:_ZN6ngraph4pass8Liveness15run_on_functionESt10shared_ptrINS_8FunctionEE
libngraph.so.0.22:_ZN6ngraph4pass8PassBase12set_propertyERKNS_8EnumMaskINS0_12PassPropertyEEEb
libngraph.so.0.22:_ZN6ngraph4pass8PassBase9get_stateEv
libngraph.so.0.22:_ZN6ngraph4pass8PassBase9set_stateERNS0_12ManagerStateE
libngraph.so.0.22:_ZN6ngraph4pass8PassBaseC1Ev
libngraph.so.0.22:_ZN6ngraph4pass8PassBaseC2Ev
libngraph.so.0.22:_ZN6ngraph4trimERKNSt7__cxx1112basic_stringIcSt11char_traitsIcESaIcEEE
libngraph.so.0.22:_ZN6ngraph5splitERKNSt7__cxx1112basic_stringIcSt11char_traitsIcESaIcEEEcb
libngraph.so.0.22:_ZN6ngraph6is_oneESt10shared_ptrINS_4NodeEE
libngraph.so.0.22:_ZN6ngraph6reduceINS_12PartialShapeEEET_RKS2_RKNS_7AxisSetE
libngraph.so.0.22:_ZN6ngraph7builder12quantization20QuantizedConvIntegerERKSt10shared_ptrINS_4NodeEES6_RKNS_7StridesES9_RKNS_14CoordinateDiffESC_S9_
libngraph.so.0.22:_ZN6ngraph7builder12quantization20QuantizedConvIntegerERKSt10shared_ptrINS_4NodeEES6_RKNS_7StridesES9_RKNS_14CoordinateDiffESC_S9_S6_S6_
libngraph.so.0.22:_ZN6ngraph7builder12quantization21QuantizedLinearMatmulERKSt10shared_ptrINS_4NodeEES6_S6_S6_S6_S6_S6_S6_
libngraph.so.0.22:_ZN6ngraph7builder12quantization26QuantizedLinearConvolutionERKSt10shared_ptrINS_4NodeEES6_RKNS_7StridesES9_RKNS_14CoordinateDiffESC_S9_S6_S6_S6_
libngraph.so.0.22:_ZN6ngraph7builder12quantization26QuantizedLinearConvolutionERKSt10shared_ptrINS_4NodeEES6_RKNS_7StridesES9_RKNS_14CoordinateDiffESC_S9_S6_S6_S6_S6_S6_S6_
libngraph.so.0.22:_ZN6ngraph7builder12quantization28QuantizedLinearMatmulIntegerERKSt10shared_ptrINS_4NodeEES6_
libngraph.so.0.22:_ZN6ngraph7builder12quantization28QuantizedLinearMatmulIntegerERKSt10shared_ptrINS_4NodeEES6_S6_S6_
libngraph.so.0.22:_ZN6ngraph7builder12quantization30QuantizedLinearConvolutionBiasERKSt10shared_ptrINS_4NodeEES6_S6_RKNS_7StridesES9_RKNS_14CoordinateDiffESC_S9_S6_S6_S6_
libngraph.so.0.22:_ZN6ngraph7builder12reorder_axesERKSt10shared_ptrINS_4NodeEESt6vectorImSaImEE
libngraph.so.0.22:_ZN6ngraph7builder14ScaledQuantizeERKSt10shared_ptrINS_4NodeEES5_S5_RKNS_7element4TypeERKNS_7AxisSetENS_2op8Quantize9RoundModeE
libngraph.so.0.22:_ZN6ngraph7builder15numpy_broadcastERKSt4pairISt10shared_ptrINS_4NodeEES4_E
libngraph.so.0.22:_ZN6ngraph7builder15numpy_transposeERKSt10shared_ptrINS_4NodeEENS_10AxisVectorE
libngraph.so.0.22:_ZN6ngraph7builder16ScaledDequantizeERKSt10shared_ptrINS_4NodeEES5_S5_RKNS_7element4TypeERKNS_7AxisSetE
libngraph.so.0.22:_ZN6ngraph7builder16get_num_elementsERKNS_5ShapeERKNS_7AxisSetE
libngraph.so.0.22:_ZN6ngraph7builder17quantization_util12check_concatERKSt6vectorISt10shared_ptrINS_4NodeEESaIS5_EES9_S9_
libngraph.so.0.22:_ZN6ngraph7builder17quantization_util13get_dot_scaleESt10shared_ptrINS_4NodeEES4_S4_S4_S4_S4_RKNS_7element4TypeES8_b
libngraph.so.0.22:_ZN6ngraph7builder17quantization_util13get_sum_scaleESt10shared_ptrINS_4NodeEES4_S4_S4_
libngraph.so.0.22:_ZN6ngraph7builder17quantization_util14get_bias_scaleESt10shared_ptrINS_4NodeEES4_S4_S4_
libngraph.so.0.22:_ZN6ngraph7builder17quantization_util37quantization_range_for_multiplicationESt10shared_ptrINS_4NodeEES4_S4_S4_
libngraph.so.0.22:_ZN6ngraph7builder17quantization_util7max_absESt10shared_ptrINS_4NodeEES4_
libngraph.so.0.22:_ZN6ngraph7builder17quantization_util9get_scaleESt10shared_ptrINS_4NodeEES4_RKNS_7element4TypeEb
libngraph.so.0.22:_ZN6ngraph7builder17quantization_util9get_scaleESt10shared_ptrINS_4NodeEES4_S4_S4_S4_S4_RKNS_7element4TypeE
libngraph.so.0.22:_ZN6ngraph7builder18ScaledQuantizedDotERKSt10shared_ptrINS_4NodeEES5_S5_S5_S5_S5_S5_S5_bb
libngraph.so.0.22:_ZN6ngraph7builder21ScaledQuantizedConcatERKSt6vectorISt10shared_ptrINS_4NodeEESaIS4_EEmS8_S8_
libngraph.so.0.22:_ZN6ngraph7builder22ScaledQuantizedAvgPoolERKSt10shared_ptrINS_4NodeEERKNS_5ShapeERKNS_7StridesES8_S8_bS5_S5_
libngraph.so.0.22:_ZN6ngraph7builder22ScaledQuantizedDotBiasERKSt10shared_ptrINS_4NodeEES5_S5_S5_S5_S5_S5_S5_S5_bb
libngraph.so.0.22:_ZN6ngraph7builder22ScaledQuantizedMaxPoolERKSt10shared_ptrINS_4NodeEERKNS_5ShapeERKNS_7StridesES8_S8_S5_S5_
libngraph.so.0.22:_ZN6ngraph7builder26ScaledQuantizedConvolutionERKSt10shared_ptrINS_4NodeEES5_RKNS_7StridesES8_RKNS_14CoordinateDiffESB_S8_S5_S5_S5_S5_S5_S5_
libngraph.so.0.22:_ZN6ngraph7builder30ScaledQuantizedConvolutionBiasERKSt10shared_ptrINS_4NodeEES5_S5_RKNS_7StridesES8_RKNS_14CoordinateDiffESB_S8_S5_S5_S5_S5_S5_S5_b
libngraph.so.0.22:_ZN6ngraph7builder30ScaledQuantizedConvolutionReluERKSt10shared_ptrINS_4NodeEES5_RKNS_7StridesES8_RKNS_14CoordinateDiffESB_S8_S5_S5_S5_S5_S5_S5_
libngraph.so.0.22:_ZN6ngraph7builder33ScaledQuantizedConvolutionBiasAddERKSt10shared_ptrINS_4NodeEES5_S5_S5_RKNS_7StridesES8_RKNS_14CoordinateDiffESB_S8_S5_S5_S5_S5_S5_S5_S5_S5_b
libngraph.so.0.22:_ZN6ngraph7builder33autobroadcast_incompatible_shapes9error_strB5cxx11ERKNS_5ShapeES4_
libngraph.so.0.22:_ZN6ngraph7builder33autobroadcast_incompatible_shapesC1ERKNS_5ShapeES4_
libngraph.so.0.22:_ZN6ngraph7builder33autobroadcast_incompatible_shapesC2ERKNS_5ShapeES4_
libngraph.so.0.22:_ZN6ngraph7builder39ScaledQuantizedConvolutionBiasSignedAddERKSt10shared_ptrINS_4NodeEES5_S5_S5_RKNS_7StridesES8_RKNS_14CoordinateDiffESB_S8_S5_S5_S5_S5_S5_S5_S5_S5_b
libngraph.so.0.22:_ZN6ngraph7builder4meanERKSt10shared_ptrINS_4NodeEERKNS_7AxisSetE
libngraph.so.0.22:_ZN6ngraph7builder5splitERKSt10shared_ptrINS_4NodeEERKSt6vectorImSaImEEm
libngraph.so.0.22:_ZN6ngraph7builder5splitERKSt10shared_ptrINS_4NodeEEmi
libngraph.so.0.22:_ZN6ngraph7builder6detail7lp_normERKSt10shared_ptrINS_4NodeEEmRKNS_7AxisSetEf
libngraph.so.0.22:_ZN6ngraph7builder7flattenERKSt10shared_ptrINS_4NodeEEi
libngraph.so.0.22:_ZN6ngraph7builder7l0_normERKSt10shared_ptrINS_4NodeEERKNS_7AxisSetE
libngraph.so.0.22:_ZN6ngraph7builder7l1_normERKSt10shared_ptrINS_4NodeEERKNS_7AxisSetEf
libngraph.so.0.22:_ZN6ngraph7builder7l2_normERKSt10shared_ptrINS_4NodeEERKNS_7AxisSetE
libngraph.so.0.22:_ZN6ngraph7builder7l2_normERKSt10shared_ptrINS_4NodeEERKNS_7AxisSetEf
libngraph.so.0.22:_ZN6ngraph7builder7lp_normERKSt10shared_ptrINS_4NodeEERKNS_7AxisSetEmf
libngraph.so.0.22:_ZN6ngraph7builder7reshapeERKSt10shared_ptrINS_4NodeEERKNS_5ShapeE
libngraph.so.0.22:_ZN6ngraph7builder7std_devERKSt10shared_ptrINS_4NodeEERKNS_7AxisSetEb
libngraph.so.0.22:_ZN6ngraph7builder8varianceERKSt10shared_ptrINS_4NodeEERKNS_7AxisSetEb
libngraph.so.0.22:_ZN6ngraph7builder9transposeERKSt10shared_ptrINS_4NodeEE
libngraph.so.0.22:_ZN6ngraph7element4Type15get_known_typesEv
libngraph.so.0.22:_ZN6ngraph7element4Type5mergeERS1_RKS1_S4_
libngraph.so.0.22:_ZN6ngraph7element4TypeC1EmbbbRKNSt7__cxx1112basic_stringIcSt11char_traitsIcESaIcEEE
libngraph.so.0.22:_ZN6ngraph7element4TypeC2EmbbbRKNSt7__cxx1112basic_stringIcSt11char_traitsIcESaIcEEE
libngraph.so.0.22:_ZN6ngraph7element4fromINS_7float16EEERKNS0_4TypeEv
libngraph.so.0.22:_ZN6ngraph7element4fromINS_8bfloat16EEERKNS0_4TypeEv
libngraph.so.0.22:_ZN6ngraph7element4fromIaEERKNS0_4TypeEv
libngraph.so.0.22:_ZN6ngraph7element4fromIbEERKNS0_4TypeEv
libngraph.so.0.22:_ZN6ngraph7element4fromIcEERKNS0_4TypeEv
libngraph.so.0.22:_ZN6ngraph7element4fromIdEERKNS0_4TypeEv
libngraph.so.0.22:_ZN6ngraph7element4fromIfEERKNS0_4TypeEv
libngraph.so.0.22:_ZN6ngraph7element4fromIhEERKNS0_4TypeEv
libngraph.so.0.22:_ZN6ngraph7element4fromIiEERKNS0_4TypeEv
libngraph.so.0.22:_ZN6ngraph7element4fromIjEERKNS0_4TypeEv
libngraph.so.0.22:_ZN6ngraph7element4fromIlEERKNS0_4TypeEv
libngraph.so.0.22:_ZN6ngraph7element4fromImEERKNS0_4TypeEv
libngraph.so.0.22:_ZN6ngraph7element4fromIsEERKNS0_4TypeEv
libngraph.so.0.22:_ZN6ngraph7element4fromItEERKNS0_4TypeEv
libngraph.so.0.22:_ZN6ngraph7elementlsERSoRKNS0_4TypeE
libngraph.so.0.22:_ZN6ngraph7float16C1Ef
libngraph.so.0.22:_ZN6ngraph7float16C2Ef
libngraph.so.0.22:_ZN6ngraph7is_usedEPNS_4NodeE
libngraph.so.0.22:_ZN6ngraph7is_zeroESt10shared_ptrINS_4NodeEE
libngraph.so.0.22:_ZN6ngraph7pattern16RecurrentMatcher5matchESt10shared_ptrINS_4NodeEE
libngraph.so.0.22:_ZN6ngraph7pattern7Matcher10match_nodeERKSt10shared_ptrINS_4NodeEES6_RSt3mapIS2_INS0_2op5LabelEES4_St4lessISA_ESaISt4pairIKSA_S4_EEE
libngraph.so.0.22:_ZN6ngraph7pattern7Matcher10match_skipERKSt10shared_ptrINS0_2op4SkipEERKS2_INS_4NodeEERSt3mapIS2_INS3_5LabelEES9_St4lessISE_ESaISt4pairIKSE_S9_EEE
libngraph.so.0.22:_ZN6ngraph7pattern7Matcher12match_any_ofERKSt10shared_ptrINS0_2op5AnyOfEERKS2_INS_4NodeEERSt3mapIS2_INS3_5LabelEES9_St4lessISE_ESaISt4pairIKSE_S9_EEE
libngraph.so.0.22:_ZN6ngraph7pattern7Matcher13match_patternERKSt10shared_ptrINS0_2op5LabelEERKS2_INS_4NodeEERSt3mapIS5_S9_St4lessIS5_ESaISt4pairIS6_S9_EEE
libngraph.so.0.22:_ZN6ngraph7pattern7Matcher14get_match_rootEv
libngraph.so.0.22:_ZN6ngraph7pattern7Matcher15match_argumentsERKSt10shared_ptrINS_4NodeEES6_RSt3mapIS2_INS0_2op5LabelEES4_St4lessISA_ESaISt4pairIKSA_S4_EEE
libngraph.so.0.22:_ZN6ngraph7pattern7Matcher17match_permutationERKSt6vectorISt10shared_ptrINS_4NodeEESaIS5_EES9_RSt3mapIS3_INS0_2op5LabelEES5_St4lessISD_ESaISt4pairIKSD_S5_EEE
libngraph.so.0.22:_ZN6ngraph7pattern7Matcher18is_contained_matchERKSt6vectorISt10shared_ptrINS_4NodeEESaIS5_EEb
libngraph.so.0.22:_ZN6ngraph7pattern7Matcher5matchERKSt10shared_ptrINS_4NodeEE
libngraph.so.0.22:_ZN6ngraph7pattern7Matcher5matchERKSt10shared_ptrINS_4NodeEERKSt3mapIS2_INS0_2op5LabelEES4_St4lessISA_ESaISt4pairIKSA_S4_EEE
libngraph.so.0.22:_ZN6ngraph7pattern7Matcher9match_anyERKSt10shared_ptrINS0_2op3AnyEERKS2_INS_4NodeEERSt3mapIS2_INS3_5LabelEES9_St4lessISE_ESaISt4pairIKSE_S9_EEE
libngraph.so.0.22:_ZN6ngraph7projectINS_12PartialShapeEEET_RKS2_RKNS_7AxisSetE
libngraph.so.0.22:_ZN6ngraph7runtime10Executable18call_with_validateERKSt6vectorISt10shared_ptrINS0_6TensorEESaIS5_EES9_
libngraph.so.0.22:_ZN6ngraph7runtime10Executable26set_parameters_and_resultsERKNS_8FunctionE
libngraph.so.0.22:_ZN6ngraph7runtime10Executable4saveERSo
libngraph.so.0.22:_ZN6ngraph7runtime10Executable8validateERKSt6vectorISt10shared_ptrINS0_6TensorEESaIS5_EES9_
libngraph.so.0.22:_ZN6ngraph7runtime10ExecutableC1Ev
libngraph.so.0.22:_ZN6ngraph7runtime10ExecutableC2Ev
libngraph.so.0.22:_ZN6ngraph7runtime10ExecutableD0Ev
libngraph.so.0.22:_ZN6ngraph7runtime10ExecutableD1Ev
libngraph.so.0.22:_ZN6ngraph7runtime10ExecutableD2Ev
libngraph.so.0.22:_ZN6ngraph7runtime10HostTensor12get_data_ptrEv
libngraph.so.0.22:_ZN6ngraph7runtime10HostTensor5writeEPKvm
libngraph.so.0.22:_ZN6ngraph7runtime10HostTensorC1ERKNS_7element4TypeERKNS_5ShapeE
libngraph.so.0.22:_ZN6ngraph7runtime10HostTensorC1ERKNS_7element4TypeERKNS_5ShapeEPv
libngraph.so.0.22:_ZN6ngraph7runtime10HostTensorC1ERKNS_7element4TypeERKNS_5ShapeEPvRKNSt7__cxx1112basic_stringIcSt11char_traitsIcESaIcEEE
libngraph.so.0.22:_ZN6ngraph7runtime10HostTensorC1ERKNS_7element4TypeERKNS_5ShapeERKNSt7__cxx1112basic_stringIcSt11char_traitsIcESaIcEEE
libngraph.so.0.22:_ZN6ngraph7runtime10HostTensorC2ERKNS_7element4TypeERKNS_5ShapeE
libngraph.so.0.22:_ZN6ngraph7runtime10HostTensorC2ERKNS_7element4TypeERKNS_5ShapeEPv
libngraph.so.0.22:_ZN6ngraph7runtime10HostTensorC2ERKNS_7element4TypeERKNS_5ShapeEPvRKNSt7__cxx1112basic_stringIcSt11char_traitsIcESaIcEEE
libngraph.so.0.22:_ZN6ngraph7runtime10HostTensorC2ERKNS_7element4TypeERKNS_5ShapeERKNSt7__cxx1112basic_stringIcSt11char_traitsIcESaIcEEE
libngraph.so.0.22:_ZN6ngraph7runtime10HostTensorD0Ev
libngraph.so.0.22:_ZN6ngraph7runtime10HostTensorD1Ev
libngraph.so.0.22:_ZN6ngraph7runtime10HostTensorD2Ev
libngraph.so.0.22:_ZN6ngraph7runtime13AlignedBufferC1EOS1_
libngraph.so.0.22:_ZN6ngraph7runtime13AlignedBufferC1Emm
libngraph.so.0.22:_ZN6ngraph7runtime13AlignedBufferC1Ev
libngraph.so.0.22:_ZN6ngraph7runtime13AlignedBufferC2EOS1_
libngraph.so.0.22:_ZN6ngraph7runtime13AlignedBufferC2Emm
libngraph.so.0.22:_ZN6ngraph7runtime13AlignedBufferC2Ev
libngraph.so.0.22:_ZN6ngraph7runtime13AlignedBufferD1Ev
libngraph.so.0.22:_ZN6ngraph7runtime13AlignedBufferD2Ev
libngraph.so.0.22:_ZN6ngraph7runtime13AlignedBufferaSEOS1_
libngraph.so.0.22:_ZN6ngraph7runtime14BackendManager12get_registryB5cxx11Ev
libngraph.so.0.22:_ZN6ngraph7runtime14BackendManager14create_backendERKNSt7__cxx1112basic_stringIcSt11char_traitsIcESaIcEEE
libngraph.so.0.22:_ZN6ngraph7runtime14BackendManager15is_backend_nameERKNSt7__cxx1112basic_stringIcSt11char_traitsIcESaIcEEERS7_
libngraph.so.0.22:_ZN6ngraph7runtime14BackendManager16register_backendERKNSt7__cxx1112basic_stringIcSt11char_traitsIcESaIcEEEPNS0_18BackendConstructorE
libngraph.so.0.22:_ZN6ngraph7runtime14BackendManager19open_shared_libraryENSt7__cxx1112basic_stringIcSt11char_traitsIcESaIcEEE
libngraph.so.0.22:_ZN6ngraph7runtime14BackendManager23get_registered_backendsB5cxx11Ev
libngraph.so.0.22:_ZN6ngraph7runtime14BackendManager25get_registered_device_mapB5cxx11Ev
libngraph.so.0.22:_ZN6ngraph7runtime6Tensor17set_tensor_layoutERKSt10shared_ptrINS_10descriptor6layout12TensorLayoutEE
libngraph.so.0.22:_ZN6ngraph7runtime6Tensor9copy_fromERKS1_
libngraph.so.0.22:_ZN6ngraph7runtime6Tensor9set_staleEb
libngraph.so.0.22:_ZN6ngraph7runtime7Backend14get_backend_opERKNSt7__cxx1112basic_stringIcSt11char_traitsIcESaIcEEEz
libngraph.so.0.22:_ZN6ngraph7runtime7Backend21create_dynamic_tensorERKNS_7element4TypeERKNS_12PartialShapeE
libngraph.so.0.22:_ZN6ngraph7runtime7Backend22get_registered_devicesB5cxx11Ev
libngraph.so.0.22:_ZN6ngraph7runtime7Backend24remove_compiled_functionESt10shared_ptrINS0_10ExecutableEE
libngraph.so.0.22:_ZN6ngraph7runtime7Backend4loadERSi
libngraph.so.0.22:_ZN6ngraph7runtime7Backend6createERKNSt7__cxx1112basic_stringIcSt11char_traitsIcESaIcEEEb
libngraph.so.0.22:_ZN6ngraph7runtime7Backend7compileESt10shared_ptrINS_8FunctionEERNS_4pass10PassConfigEb
libngraph.so.0.22:_ZN6ngraph7runtime7BackendD0Ev
libngraph.so.0.22:_ZN6ngraph7runtime7BackendD1Ev
libngraph.so.0.22:_ZN6ngraph7runtime7BackendD2Ev
libngraph.so.0.22:_ZN6ngraph7runtime7dynamic13DynamicTensor12make_storageERKNS_7element4TypeERKNS_5ShapeE
libngraph.so.0.22:_ZN6ngraph7runtime7dynamic13DynamicTensor15release_storageEv
libngraph.so.0.22:_ZN6ngraph7runtime7dynamic13DynamicTensor5writeEPKvm
libngraph.so.0.22:_ZN6ngraph7runtime7dynamic13DynamicTensor9copy_fromERKNS0_6TensorE
libngraph.so.0.22:_ZN6ngraph7runtime7dynamic13DynamicTensorC1ERKNS_7element4TypeERKNS_12PartialShapeERKSt10shared_ptrINS0_7BackendEE
libngraph.so.0.22:_ZN6ngraph7runtime7dynamic13DynamicTensorC2ERKNS_7element4TypeERKNS_12PartialShapeERKSt10shared_ptrINS0_7BackendEE
libngraph.so.0.22:_ZN6ngraph7runtime7dynamic14DynamicBackend13create_tensorERKNS_7element4TypeERKNS_5ShapeE
libngraph.so.0.22:_ZN6ngraph7runtime7dynamic14DynamicBackend13create_tensorERKNS_7element4TypeERKNS_5ShapeEPv
libngraph.so.0.22:_ZN6ngraph7runtime7dynamic14DynamicBackend21create_dynamic_tensorERKNS_7element4TypeERKNS_12PartialShapeE
libngraph.so.0.22:_ZN6ngraph7runtime7dynamic14DynamicBackend7compileESt10shared_ptrINS_8FunctionEEb
libngraph.so.0.22:_ZN6ngraph7runtime7dynamic14DynamicBackendC1ESt10shared_ptrINS0_7BackendEE
libngraph.so.0.22:_ZN6ngraph7runtime7dynamic14DynamicBackendC2ESt10shared_ptrINS0_7BackendEE
libngraph.so.0.22:_ZN6ngraph7runtime7dynamic17DynamicExecutable4callERKSt6vectorISt10shared_ptrINS0_6TensorEESaIS6_EESA_
libngraph.so.0.22:_ZN6ngraph7runtime7dynamic17DynamicExecutableC1ESt10shared_ptrINS_8FunctionEES3_INS0_7BackendEEb
libngraph.so.0.22:_ZN6ngraph7runtime7dynamic17DynamicExecutableC2ESt10shared_ptrINS_8FunctionEES3_INS0_7BackendEEb
libngraph.so.0.22:_ZN6ngraph8Function12replace_nodeESt10shared_ptrINS_4NodeEES3_
libngraph.so.0.22:_ZN6ngraph8Function13set_placementEm
libngraph.so.0.22:_ZN6ngraph8Function17set_friendly_nameERKNSt7__cxx1112basic_stringIcSt11char_traitsIcESaIcEEE
libngraph.so.0.22:_ZN6ngraph8Function23get_temporary_pool_sizeEv
libngraph.so.0.22:_ZN6ngraph8Function23set_temporary_pool_sizeEm
libngraph.so.0.22:_ZN6ngraph8Function30validate_nodes_and_infer_typesEv
libngraph.so.0.22:_ZN6ngraph8Function4initEv
libngraph.so.0.22:_ZN6ngraph8FunctionC1ERKSt10shared_ptrINS_4NodeEERKSt6vectorIS1_INS_2op9ParameterEESaIS9_EERKNSt7__cxx1112basic_stringIcSt11char_traitsIcESaIcEEE
libngraph.so.0.22:_ZN6ngraph8FunctionC1ERKSt6vectorISt10shared_ptrINS_2op6ResultEESaIS5_EERKS1_IS2_INS3_9ParameterEESaISB_EERKNSt7__cxx1112basic_stringIcSt11char_traitsIcESaIcEEE
libngraph.so.0.22:_ZN6ngraph8FunctionC1ERKSt6vectorISt10shared_ptrINS_4NodeEESaIS4_EERKS1_IS2_INS_2op9ParameterEESaISB_EERKNSt7__cxx1112basic_stringIcSt11char_traitsIcESaIcEEE
libngraph.so.0.22:_ZN6ngraph8FunctionC2ERKSt10shared_ptrINS_4NodeEERKSt6vectorIS1_INS_2op9ParameterEESaIS9_EERKNSt7__cxx1112basic_stringIcSt11char_traitsIcESaIcEEE
libngraph.so.0.22:_ZN6ngraph8FunctionC2ERKSt6vectorISt10shared_ptrINS_2op6ResultEESaIS5_EERKS1_IS2_INS3_9ParameterEESaISB_EERKNSt7__cxx1112basic_stringIcSt11char_traitsIcESaIcEEE
libngraph.so.0.22:_ZN6ngraph8FunctionC2ERKSt6vectorISt10shared_ptrINS_4NodeEESaIS4_EERKS1_IS2_INS_2op9ParameterEESaISB_EERKNSt7__cxx1112basic_stringIcSt11char_traitsIcESaIcEEE
libngraph.so.0.22:_ZN6ngraph8RNGState10deactivateEv
libngraph.so.0.22:_ZN6ngraph8RNGState8activateEv
libngraph.so.0.22:_ZN6ngraph8autodiff8Adjoints13backprop_nodeERKSt10shared_ptrINS_4NodeEE
libngraph.so.0.22:_ZN6ngraph8autodiff8Adjoints18add_delta_to_sliceERKSt10shared_ptrINS_4NodeEES6_RKNS_10CoordinateES9_RKNS_7StridesE
libngraph.so.0.22:_ZN6ngraph8autodiff8Adjoints3getERKSt10shared_ptrINS_4NodeEE
libngraph.so.0.22:_ZN6ngraph8autodiff8Adjoints9add_deltaERKSt10shared_ptrINS_4NodeEES6_m
libngraph.so.0.22:_ZN6ngraph8autodiff8AdjointsC1ERKSt6vectorISt10shared_ptrINS_4NodeEESaIS5_EES9_
libngraph.so.0.22:_ZN6ngraph8autodiff8AdjointsC2ERKSt6vectorISt10shared_ptrINS_4NodeEESaIS5_EES9_
libngraph.so.0.22:_ZN6ngraph8bfloat1615to_float_vectorERKSt6vectorIS0_SaIS0_EE
libngraph.so.0.22:_ZN6ngraph8bfloat1617from_float_vectorERKSt6vectorIfSaIfEE
libngraph.so.0.22:_ZN6ngraph8round_upEmm
libngraph.so.0.22:_ZN6ngraph8to_lowerERKNSt7__cxx1112basic_stringIcSt11char_traitsIcESaIcEEE
libngraph.so.0.22:_ZN6ngraph8to_upperERKNSt7__cxx1112basic_stringIcSt11char_traitsIcESaIcEEE
libngraph.so.0.22:_ZN6ngraph9Dimension15broadcast_mergeERS0_S0_S0_
libngraph.so.0.22:_ZN6ngraph9Dimension5mergeERS0_S0_S0_
libngraph.so.0.22:_ZN6ngraph9DimensionC1Em
libngraph.so.0.22:_ZN6ngraph9DimensionC2Em
libngraph.so.0.22:_ZN6ngraph9LogHelperC1ENS_8LOG_TYPEEPKciSt8functionIFvRKNSt7__cxx1112basic_stringIcSt11char_traitsIcESaIcEEEEE
libngraph.so.0.22:_ZN6ngraph9LogHelperC2ENS_8LOG_TYPEEPKciSt8functionIFvRKNSt7__cxx1112basic_stringIcSt11char_traitsIcESaIcEEEEE
libngraph.so.0.22:_ZN6ngraph9LogHelperD1Ev
libngraph.so.0.22:_ZN6ngraph9LogHelperD2Ev
libngraph.so.0.22:_ZN6ngraph9LogPrintfEPKcz
libngraph.so.0.22:_ZN6ngraph9file_util11remove_fileERKNSt7__cxx1112basic_stringIcSt11char_traitsIcESaIcEEE
libngraph.so.0.22:_ZN6ngraph9file_util12get_file_extERKNSt7__cxx1112basic_stringIcSt11char_traitsIcESaIcEEE
libngraph.so.0.22:_ZN6ngraph9file_util12tmp_filenameERKNSt7__cxx1112basic_stringIcSt11char_traitsIcESaIcEEE
libngraph.so.0.22:_ZN6ngraph9file_util13get_directoryERKNSt7__cxx1112basic_stringIcSt11char_traitsIcESaIcEEE
libngraph.so.0.22:_ZN6ngraph9file_util13get_file_nameERKNSt7__cxx1112basic_stringIcSt11char_traitsIcESaIcEEE
libngraph.so.0.22:_ZN6ngraph9file_util13get_file_sizeERKNSt7__cxx1112basic_stringIcSt11char_traitsIcESaIcEEE
libngraph.so.0.22:_ZN6ngraph9file_util13iterate_filesERKNSt7__cxx1112basic_stringIcSt11char_traitsIcESaIcEEESt8functionIFvS8_bEEbb
libngraph.so.0.22:_ZN6ngraph9file_util14make_directoryERKNSt7__cxx1112basic_stringIcSt11char_traitsIcESaIcEEE
libngraph.so.0.22:_ZN6ngraph9file_util16remove_directoryERKNSt7__cxx1112basic_stringIcSt11char_traitsIcESaIcEEE
libngraph.so.0.22:_ZN6ngraph9file_util18read_file_contentsERKNSt7__cxx1112basic_stringIcSt11char_traitsIcESaIcEEE
libngraph.so.0.22:_ZN6ngraph9file_util19read_file_to_stringERKNSt7__cxx1112basic_stringIcSt11char_traitsIcESaIcEEE
libngraph.so.0.22:_ZN6ngraph9file_util23get_temp_directory_pathB5cxx11Ev
libngraph.so.0.22:_ZN6ngraph9file_util6existsERKNSt7__cxx1112basic_stringIcSt11char_traitsIcESaIcEEE
libngraph.so.0.22:_ZN6ngraph9file_util9path_joinERKNSt7__cxx1112basic_stringIcSt11char_traitsIcESaIcEEES8_
libngraph.so.0.22:_ZN6ngraph9file_util9path_joinERKNSt7__cxx1112basic_stringIcSt11char_traitsIcESaIcEEES8_S8_
libngraph.so.0.22:_ZN6ngraph9file_util9path_joinERKNSt7__cxx1112basic_stringIcSt11char_traitsIcESaIcEEES8_S8_S8_
libngraph.so.0.22:_ZN6ngraph9make_zeroERKNS_7element4TypeERKNS_5ShapeE
libngraph.so.0.22:_ZN6ngraphdvESt10shared_ptrINS_4NodeEES2_
libngraph.so.0.22:_ZN6ngraphlsERSoRKNS_10AxisVectorE
libngraph.so.0.22:_ZN6ngraphlsERSoRKNS_10CoordinateE
libngraph.so.0.22:_ZN6ngraphlsERSoRKNS_12PartialShapeE
libngraph.so.0.22:_ZN6ngraphlsERSoRKNS_14CoordinateDiffE
libngraph.so.0.22:_ZN6ngraphlsERSoRKNS_4NodeE
libngraph.so.0.22:_ZN6ngraphlsERSoRKNS_5ShapeE
libngraph.so.0.22:_ZN6ngraphlsERSoRKNS_7AxisSetE
libngraph.so.0.22:_ZN6ngraphlsERSoRKNS_7StridesE
libngraph.so.0.22:_ZN6ngraphlsERSoRKNS_9DimensionE
libngraph.so.0.22:_ZN6ngraphmiESt10shared_ptrINS_4NodeEES2_
libngraph.so.0.22:_ZN6ngraphmlESt10shared_ptrINS_4NodeEES2_
libngraph.so.0.22:_ZN6ngraphngESt10shared_ptrINS_4NodeEE
libngraph.so.0.22:_ZN6ngraphplERKNS_12PartialShapeES2_
libngraph.so.0.22:_ZN6ngraphplESt10shared_ptrINS_4NodeEES2_
libngraph.so.0.22:_ZNK6ngraph10descriptor5Input10get_tensorEv
libngraph.so.0.22:_ZNK6ngraph10descriptor5Input14get_tensor_ptrEv
libngraph.so.0.22:_ZNK6ngraph10descriptor5Input16get_element_typeEv
libngraph.so.0.22:_ZNK6ngraph10descriptor5Input17get_partial_shapeEv
libngraph.so.0.22:_ZNK6ngraph10descriptor5Input8get_nodeEv
libngraph.so.0.22:_ZNK6ngraph10descriptor5Input9get_shapeEv
libngraph.so.0.22:_ZNK6ngraph10descriptor6Output10get_tensorEv
libngraph.so.0.22:_ZNK6ngraph10descriptor6Output16get_element_typeEv
libngraph.so.0.22:_ZNK6ngraph10descriptor6Output17get_partial_shapeEv
libngraph.so.0.22:_ZNK6ngraph10descriptor6Output8get_nodeEv
libngraph.so.0.22:_ZNK6ngraph10descriptor6Output9get_shapeEv
libngraph.so.0.22:_ZNK6ngraph10descriptor6Tensor15get_pool_offsetEv
libngraph.so.0.22:_ZNK6ngraph10descriptor6Tensor4sizeEv
libngraph.so.0.22:_ZNK6ngraph10descriptor6Tensor8get_nameB5cxx11Ev
libngraph.so.0.22:_ZNK6ngraph10descriptor6Tensor9get_shapeEv
libngraph.so.0.22:_ZNK6ngraph10descriptor6layout12TensorLayout16get_element_typeEv
libngraph.so.0.22:_ZNK6ngraph10descriptor6layout12TensorLayout8get_sizeEv
libngraph.so.0.22:_ZNK6ngraph10descriptor6layout12TensorLayout9get_shapeEv
libngraph.so.0.22:_ZNK6ngraph10descriptor6layout17DenseTensorLayout11get_stridesEv
libngraph.so.0.22:_ZNK6ngraph10descriptor6layout17DenseTensorLayouteqERKNS1_12TensorLayoutE
libngraph.so.0.22:_ZNK6ngraph12PartialShape10compatibleERKS0_
libngraph.so.0.22:_ZNK6ngraph12PartialShape11same_schemeERKS0_
libngraph.so.0.22:_ZNK6ngraph12PartialShape7refinesERKS0_
libngraph.so.0.22:_ZNK6ngraph12PartialShape7relaxesERKS0_
libngraph.so.0.22:_ZNK6ngraph12PartialShape8to_shapeEv
libngraph.so.0.22:_ZNK6ngraph12PartialShape9is_staticEv
libngraph.so.0.22:_ZNK6ngraph19CoordinateTransform12index_sourceERKNS_10CoordinateE
libngraph.so.0.22:_ZNK6ngraph19CoordinateTransform16get_target_shapeEv
libngraph.so.0.22:_ZNK6ngraph19CoordinateTransform20to_source_coordinateERKNS_10CoordinateE
libngraph.so.0.22:_ZNK6ngraph19CoordinateTransform21has_source_coordinateERKNS_10CoordinateE
libngraph.so.0.22:_ZNK6ngraph19CoordinateTransform5indexERKNS_10CoordinateE
libngraph.so.0.22:_ZNK6ngraph19CoordinateTransform8IteratordeEv
libngraph.so.0.22:_ZNK6ngraph2op10Dequantize18copy_with_new_argsERKSt6vectorISt10shared_ptrINS_4NodeEESaIS5_EE
libngraph.so.0.22:_ZNK6ngraph2op10DynReshape18copy_with_new_argsERKSt6vectorISt10shared_ptrINS_4NodeEESaIS5_EE
libngraph.so.0.22:_ZNK6ngraph2op10ROIPooling18copy_with_new_argsERKSt6vectorISt10shared_ptrINS_4NodeEESaIS5_EE
libngraph.so.0.22:_ZNK6ngraph2op10RegionYolo18copy_with_new_argsERKSt6vectorISt10shared_ptrINS_4NodeEESaIS5_EE
libngraph.so.0.22:_ZNK6ngraph2op10ScaleShift12decompose_opEv
libngraph.so.0.22:_ZNK6ngraph2op10ScaleShift18copy_with_new_argsERKSt6vectorISt10shared_ptrINS_4NodeEESaIS5_EE
libngraph.so.0.22:_ZNK6ngraph2op10ScatterAdd18copy_with_new_argsERKSt6vectorISt10shared_ptrINS_4NodeEESaIS5_EE
libngraph.so.0.22:_ZNK6ngraph2op11BatchMatMul18copy_with_new_argsERKSt6vectorISt10shared_ptrINS_4NodeEESaIS5_EE
libngraph.so.0.22:_ZNK6ngraph2op11Convolution18copy_with_new_argsERKSt6vectorISt10shared_ptrINS_4NodeEESaIS5_EE
libngraph.so.0.22:_ZNK6ngraph2op11HardSigmoid12decompose_opEv
libngraph.so.0.22:_ZNK6ngraph2op11HardSigmoid18copy_with_new_argsERKSt6vectorISt10shared_ptrINS_4NodeEESaIS5_EE
libngraph.so.0.22:_ZNK6ngraph2op11Interpolate18copy_with_new_argsERKSt6vectorISt10shared_ptrINS_4NodeEESaIS5_EE
libngraph.so.0.22:_ZNK6ngraph2op11Passthrough18copy_with_new_argsERKSt6vectorISt10shared_ptrINS_4NodeEESaIS5_EE
libngraph.so.0.22:_ZNK6ngraph2op12DepthToSpace12decompose_opEv
libngraph.so.0.22:_ZNK6ngraph2op12DepthToSpace18copy_with_new_argsERKSt6vectorISt10shared_ptrINS_4NodeEESaIS5_EE
libngraph.so.0.22:_ZNK6ngraph2op12DynBroadcast18copy_with_new_argsERKSt6vectorISt10shared_ptrINS_4NodeEESaIS5_EE
libngraph.so.0.22:_ZNK6ngraph2op12FakeQuantize12decompose_opEv
libngraph.so.0.22:_ZNK6ngraph2op12FakeQuantize18copy_with_new_argsERKSt6vectorISt10shared_ptrINS_4NodeEESaIS5_EE
libngraph.so.0.22:_ZNK6ngraph2op12GenerateMask18copy_with_new_argsERKSt6vectorISt10shared_ptrINS_4NodeEESaIS5_EE
libngraph.so.0.22:_ZNK6ngraph2op12PSROIPooling18copy_with_new_argsERKSt6vectorISt10shared_ptrINS_4NodeEESaIS5_EE
libngraph.so.0.22:_ZNK6ngraph2op12ReluBackprop18copy_with_new_argsERKSt6vectorISt10shared_ptrINS_4NodeEESaIS5_EE
libngraph.so.0.22:_ZNK6ngraph2op12ReplaceSlice18copy_with_new_argsERKSt6vectorISt10shared_ptrINS_4NodeEESaIS5_EE
libngraph.so.0.22:_ZNK6ngraph2op12ScatterNDAdd18copy_with_new_argsERKSt6vectorISt10shared_ptrINS_4NodeEESaIS5_EE
libngraph.so.0.22:_ZNK6ngraph2op12SpaceToDepth12decompose_opEv
libngraph.so.0.22:_ZNK6ngraph2op12SpaceToDepth18copy_with_new_argsERKSt6vectorISt10shared_ptrINS_4NodeEESaIS5_EE
libngraph.so.0.22:_ZNK6ngraph2op12StopGradient18copy_with_new_argsERKSt6vectorISt10shared_ptrINS_4NodeEESaIS5_EE
libngraph.so.0.22:_ZNK6ngraph2op13BroadcastLike18copy_with_new_argsERKSt6vectorISt10shared_ptrINS_4NodeEESaIS5_EE
libngraph.so.0.22:_ZNK6ngraph2op15AvgPoolBackprop16get_window_shapeEv
libngraph.so.0.22:_ZNK6ngraph2op15AvgPoolBackprop17get_padding_aboveEv
libngraph.so.0.22:_ZNK6ngraph2op15AvgPoolBackprop17get_padding_belowEv
libngraph.so.0.22:_ZNK6ngraph2op15AvgPoolBackprop18copy_with_new_argsERKSt6vectorISt10shared_ptrINS_4NodeEESaIS5_EE
libngraph.so.0.22:_ZNK6ngraph2op15AvgPoolBackprop21get_forward_arg_shapeEv
libngraph.so.0.22:_ZNK6ngraph2op15AvgPoolBackprop27get_window_movement_stridesEv
libngraph.so.0.22:_ZNK6ngraph2op15AvgPoolBackprop38get_include_padding_in_avg_computationEv
libngraph.so.0.22:_ZNK6ngraph2op15ConvolutionBias12decompose_opEv
libngraph.so.0.22:_ZNK6ngraph2op15ConvolutionBias18copy_with_new_argsERKSt6vectorISt10shared_ptrINS_4NodeEESaIS5_EE
libngraph.so.0.22:_ZNK6ngraph2op15DetectionOutput18copy_with_new_argsERKSt6vectorISt10shared_ptrINS_4NodeEESaIS5_EE
libngraph.so.0.22:_ZNK6ngraph2op15EmbeddingLookup18copy_with_new_argsERKSt6vectorISt10shared_ptrINS_4NodeEESaIS5_EE
libngraph.so.0.22:_ZNK6ngraph2op15MaxPoolBackprop18copy_with_new_argsERKSt6vectorISt10shared_ptrINS_4NodeEESaIS5_EE
libngraph.so.0.22:_ZNK6ngraph2op15QuantizedConcat18copy_with_new_argsERKSt6vectorISt10shared_ptrINS_4NodeEESaIS5_EE
libngraph.so.0.22:_ZNK6ngraph2op15ReverseSequence18copy_with_new_argsERKSt6vectorISt10shared_ptrINS_4NodeEESaIS5_EE
libngraph.so.0.22:_ZNK6ngraph2op15ShuffleChannels12decompose_opEv
libngraph.so.0.22:_ZNK6ngraph2op15ShuffleChannels18copy_with_new_argsERKSt6vectorISt10shared_ptrINS_4NodeEESaIS5_EE
libngraph.so.0.22:_ZNK6ngraph2op15ShuffleChannels19get_zero_based_axisEv
libngraph.so.0.22:_ZNK6ngraph2op15ShuffleChannels21get_pre_shuffle_shapeERKNS_5ShapeE
libngraph.so.0.22:_ZNK6ngraph2op15SigmoidBackprop18copy_with_new_argsERKSt6vectorISt10shared_ptrINS_4NodeEESaIS5_EE
libngraph.so.0.22:_ZNK6ngraph2op16CTCGreedyDecoder18copy_with_new_argsERKSt6vectorISt10shared_ptrINS_4NodeEESaIS5_EE
libngraph.so.0.22:_ZNK6ngraph2op16GetOutputElement13get_argumentsEv
libngraph.so.0.22:_ZNK6ngraph2op16GetOutputElement18copy_with_new_argsERKSt6vectorISt10shared_ptrINS_4NodeEESaIS5_EE
libngraph.so.0.22:_ZNK6ngraph2op16GroupConvolution12decompose_opEv
libngraph.so.0.22:_ZNK6ngraph2op16GroupConvolution18copy_with_new_argsERKSt6vectorISt10shared_ptrINS_4NodeEESaIS5_EE
libngraph.so.0.22:_ZNK6ngraph2op16GroupConvolution22get_weights_dimensionsEv
libngraph.so.0.22:_ZNK6ngraph2op16QuantizedAvgPool18copy_with_new_argsERKSt6vectorISt10shared_ptrINS_4NodeEESaIS5_EE
libngraph.so.0.22:_ZNK6ngraph2op16QuantizedMaxPool18copy_with_new_argsERKSt6vectorISt10shared_ptrINS_4NodeEESaIS5_EE
libngraph.so.0.22:_ZNK6ngraph2op17BatchNormTraining18copy_with_new_argsERKSt6vectorISt10shared_ptrINS_4NodeEESaIS5_EE
libngraph.so.0.22:_ZNK6ngraph2op17PriorBoxClustered18copy_with_new_argsERKSt6vectorISt10shared_ptrINS_4NodeEESaIS5_EE
libngraph.so.0.22:_ZNK6ngraph2op17SquaredDifference12decompose_opEv
libngraph.so.0.22:_ZNK6ngraph2op17SquaredDifference18copy_with_new_argsERKSt6vectorISt10shared_ptrINS_4NodeEESaIS5_EE
libngraph.so.0.22:_ZNK6ngraph2op18BatchNormInference18copy_with_new_argsERKSt6vectorISt10shared_ptrINS_4NodeEESaIS5_EE
libngraph.so.0.22:_ZNK6ngraph2op18ConvolutionBiasAdd12decompose_opEv
libngraph.so.0.22:_ZNK6ngraph2op18ConvolutionBiasAdd18copy_with_new_argsERKSt6vectorISt10shared_ptrINS_4NodeEESaIS5_EE
libngraph.so.0.22:_ZNK6ngraph2op18ScalarConstantLike18copy_with_new_argsERKSt6vectorISt10shared_ptrINS_4NodeEESaIS5_EE
libngraph.so.0.22:_ZNK6ngraph2op20BroadcastDistributed11get_root_idEv
libngraph.so.0.22:_ZNK6ngraph2op20BroadcastDistributed18copy_with_new_argsERKSt6vectorISt10shared_ptrINS_4NodeEESaIS5_EE
libngraph.so.0.22:_ZNK6ngraph2op20QuantizedConvolution18copy_with_new_argsERKSt6vectorISt10shared_ptrINS_4NodeEESaIS5_EE
libngraph.so.0.22:_ZNK6ngraph2op22ScalarConstantLikeBase11as_constantEv
libngraph.so.0.22:_ZNK6ngraph2op23ConvolutionBackpropData18copy_with_new_argsERKSt6vectorISt10shared_ptrINS_4NodeEESaIS5_EE
libngraph.so.0.22:_ZNK6ngraph2op23ConvolutionBackpropData36compute_backward_delta_out_pad_aboveEv
libngraph.so.0.22:_ZNK6ngraph2op23ConvolutionBackpropData36compute_backward_delta_out_pad_belowEv
libngraph.so.0.22:_ZNK6ngraph2op24QuantizedConvolutionBias18copy_with_new_argsERKSt6vectorISt10shared_ptrINS_4NodeEESaIS5_EE
libngraph.so.0.22:_ZNK6ngraph2op24QuantizedConvolutionRelu18copy_with_new_argsERKSt6vectorISt10shared_ptrINS_4NodeEESaIS5_EE
libngraph.so.0.22:_ZNK6ngraph2op25BatchNormTrainingBackprop18copy_with_new_argsERKSt6vectorISt10shared_ptrINS_4NodeEESaIS5_EE
libngraph.so.0.22:_ZNK6ngraph2op26ConvolutionBackpropFilters18copy_with_new_argsERKSt6vectorISt10shared_ptrINS_4NodeEESaIS5_EE
libngraph.so.0.22:_ZNK6ngraph2op26ConvolutionBackpropFilters29compute_backward_in_pad_aboveEv
libngraph.so.0.22:_ZNK6ngraph2op27QuantizedConvolutionBiasAdd18copy_with_new_argsERKSt6vectorISt10shared_ptrINS_4NodeEESaIS5_EE
libngraph.so.0.22:_ZNK6ngraph2op2Or18copy_with_new_argsERKSt6vectorISt10shared_ptrINS_4NodeEESaIS5_EE
libngraph.so.0.22:_ZNK6ngraph2op33QuantizedConvolutionBiasSignedAdd18copy_with_new_argsERKSt6vectorISt10shared_ptrINS_4NodeEESaIS5_EE
libngraph.so.0.22:_ZNK6ngraph2op34ConvolutionBiasBackpropFiltersBias12decompose_opEv
libngraph.so.0.22:_ZNK6ngraph2op34ConvolutionBiasBackpropFiltersBias18copy_with_new_argsERKSt6vectorISt10shared_ptrINS_4NodeEESaIS5_EE
libngraph.so.0.22:_ZNK6ngraph2op3Abs18copy_with_new_argsERKSt6vectorISt10shared_ptrINS_4NodeEESaIS5_EE
libngraph.so.0.22:_ZNK6ngraph2op3Add18copy_with_new_argsERKSt6vectorISt10shared_ptrINS_4NodeEESaIS5_EE
libngraph.so.0.22:_ZNK6ngraph2op3All18copy_with_new_argsERKSt6vectorISt10shared_ptrINS_4NodeEESaIS5_EE
libngraph.so.0.22:_ZNK6ngraph2op3And18copy_with_new_argsERKSt6vectorISt10shared_ptrINS_4NodeEESaIS5_EE
libngraph.so.0.22:_ZNK6ngraph2op3Any18copy_with_new_argsERKSt6vectorISt10shared_ptrINS_4NodeEESaIS5_EE
libngraph.so.0.22:_ZNK6ngraph2op3Cos18copy_with_new_argsERKSt6vectorISt10shared_ptrINS_4NodeEESaIS5_EE
libngraph.so.0.22:_ZNK6ngraph2op3Elu12decompose_opEv
libngraph.so.0.22:_ZNK6ngraph2op3Elu18copy_with_new_argsERKSt6vectorISt10shared_ptrINS_4NodeEESaIS5_EE
libngraph.so.0.22:_ZNK6ngraph2op3Erf18copy_with_new_argsERKSt6vectorISt10shared_ptrINS_4NodeEESaIS5_EE
libngraph.so.0.22:_ZNK6ngraph2op3Exp18copy_with_new_argsERKSt6vectorISt10shared_ptrINS_4NodeEESaIS5_EE
libngraph.so.0.22:_ZNK6ngraph2op3GRN12decompose_opEv
libngraph.so.0.22:_ZNK6ngraph2op3GRN18copy_with_new_argsERKSt6vectorISt10shared_ptrINS_4NodeEESaIS5_EE
libngraph.so.0.22:_ZNK6ngraph2op3LRN18copy_with_new_argsERKSt6vectorISt10shared_ptrINS_4NodeEESaIS5_EE
libngraph.so.0.22:_ZNK6ngraph2op3Log18copy_with_new_argsERKSt6vectorISt10shared_ptrINS_4NodeEESaIS5_EE
libngraph.so.0.22:_ZNK6ngraph2op3MVN12decompose_opEv
libngraph.so.0.22:_ZNK6ngraph2op3MVN18copy_with_new_argsERKSt6vectorISt10shared_ptrINS_4NodeEESaIS5_EE
libngraph.so.0.22:_ZNK6ngraph2op3Max17get_default_valueEv
libngraph.so.0.22:_ZNK6ngraph2op3Max18copy_with_new_argsERKSt6vectorISt10shared_ptrINS_4NodeEESaIS5_EE
libngraph.so.0.22:_ZNK6ngraph2op3Min17get_default_valueEv
libngraph.so.0.22:_ZNK6ngraph2op3Min18copy_with_new_argsERKSt6vectorISt10shared_ptrINS_4NodeEESaIS5_EE
libngraph.so.0.22:_ZNK6ngraph2op3Not18copy_with_new_argsERKSt6vectorISt10shared_ptrINS_4NodeEESaIS5_EE
libngraph.so.0.22:_ZNK6ngraph2op3Pad17get_default_valueEv
libngraph.so.0.22:_ZNK6ngraph2op3Pad18copy_with_new_argsERKSt6vectorISt10shared_ptrINS_4NodeEESaIS5_EE
libngraph.so.0.22:_ZNK6ngraph2op3Sin18copy_with_new_argsERKSt6vectorISt10shared_ptrINS_4NodeEESaIS5_EE
libngraph.so.0.22:_ZNK6ngraph2op3Sum18copy_with_new_argsERKSt6vectorISt10shared_ptrINS_4NodeEESaIS5_EE
libngraph.so.0.22:_ZNK6ngraph2op3Tan18copy_with_new_argsERKSt6vectorISt10shared_ptrINS_4NodeEESaIS5_EE
libngraph.so.0.22:_ZNK6ngraph2op4Acos18copy_with_new_argsERKSt6vectorISt10shared_ptrINS_4NodeEESaIS5_EE
libngraph.so.0.22:_ZNK6ngraph2op4Asin18copy_with_new_argsERKSt6vectorISt10shared_ptrINS_4NodeEESaIS5_EE
libngraph.so.0.22:_ZNK6ngraph2op4Atan18copy_with_new_argsERKSt6vectorISt10shared_ptrINS_4NodeEESaIS5_EE
libngraph.so.0.22:_ZNK6ngraph2op4Cosh18copy_with_new_argsERKSt6vectorISt10shared_ptrINS_4NodeEESaIS5_EE
libngraph.so.0.22:_ZNK6ngraph2op4Gemm12decompose_opEv
libngraph.so.0.22:_ZNK6ngraph2op4Gemm18copy_with_new_argsERKSt6vectorISt10shared_ptrINS_4NodeEESaIS5_EE
libngraph.so.0.22:_ZNK6ngraph2op4Less18copy_with_new_argsERKSt6vectorISt10shared_ptrINS_4NodeEESaIS5_EE
libngraph.so.0.22:_ZNK6ngraph2op4Relu18copy_with_new_argsERKSt6vectorISt10shared_ptrINS_4NodeEESaIS5_EE
libngraph.so.0.22:_ZNK6ngraph2op4Sign18copy_with_new_argsERKSt6vectorISt10shared_ptrINS_4NodeEESaIS5_EE
libngraph.so.0.22:_ZNK6ngraph2op4Sinh18copy_with_new_argsERKSt6vectorISt10shared_ptrINS_4NodeEESaIS5_EE
libngraph.so.0.22:_ZNK6ngraph2op4Sqrt18copy_with_new_argsERKSt6vectorISt10shared_ptrINS_4NodeEESaIS5_EE
libngraph.so.0.22:_ZNK6ngraph2op4Tanh18copy_with_new_argsERKSt6vectorISt10shared_ptrINS_4NodeEESaIS5_EE
libngraph.so.0.22:_ZNK6ngraph2op4Tile18copy_with_new_argsERKSt6vectorISt10shared_ptrINS_4NodeEESaIS5_EE
libngraph.so.0.22:_ZNK6ngraph2op4TopK18copy_with_new_argsERKSt6vectorISt10shared_ptrINS_4NodeEESaIS5_EE
libngraph.so.0.22:_ZNK6ngraph2op4TopK5get_kEv
libngraph.so.0.22:_ZNK6ngraph2op4util14IndexReduction18get_reduction_axisEv
libngraph.so.0.22:_ZNK6ngraph2op4util14IndexReduction22get_index_element_typeEv
libngraph.so.0.22:_ZNK6ngraph2op4util16LogicalReduction18get_reduction_axesEv
libngraph.so.0.22:_ZNK6ngraph2op4util16LogicalReduction23reduction_axes_constantEv
libngraph.so.0.22:_ZNK6ngraph2op4util19ArithmeticReduction18get_reduction_axesEv
libngraph.so.0.22:_ZNK6ngraph2op4util19ArithmeticReduction23reduction_axes_constantEv
libngraph.so.0.22:_ZNK6ngraph2op5Clamp12decompose_opEv
libngraph.so.0.22:_ZNK6ngraph2op5Clamp18copy_with_new_argsERKSt6vectorISt10shared_ptrINS_4NodeEESaIS5_EE
libngraph.so.0.22:_ZNK6ngraph2op5Equal18copy_with_new_argsERKSt6vectorISt10shared_ptrINS_4NodeEESaIS5_EE
libngraph.so.0.22:_ZNK6ngraph2op5Floor18copy_with_new_argsERKSt6vectorISt10shared_ptrINS_4NodeEESaIS5_EE
libngraph.so.0.22:_ZNK6ngraph2op5PRelu12decompose_opEv
libngraph.so.0.22:_ZNK6ngraph2op5PRelu18copy_with_new_argsERKSt6vectorISt10shared_ptrINS_4NodeEESaIS5_EE
libngraph.so.0.22:_ZNK6ngraph2op5Power18copy_with_new_argsERKSt6vectorISt10shared_ptrINS_4NodeEESaIS5_EE
libngraph.so.0.22:_ZNK6ngraph2op5Slice18copy_with_new_argsERKSt6vectorISt10shared_ptrINS_4NodeEESaIS5_EE
libngraph.so.0.22:_ZNK6ngraph2op5Split12decompose_opEv
libngraph.so.0.22:_ZNK6ngraph2op5Split17adjust_axis_valueEim
libngraph.so.0.22:_ZNK6ngraph2op5Split18copy_with_new_argsERKSt6vectorISt10shared_ptrINS_4NodeEESaIS5_EE
libngraph.so.0.22:_ZNK6ngraph2op6ArgMax17get_default_valueEv
libngraph.so.0.22:_ZNK6ngraph2op6ArgMax18copy_with_new_argsERKSt6vectorISt10shared_ptrINS_4NodeEESaIS5_EE
libngraph.so.0.22:_ZNK6ngraph2op6ArgMin17get_default_valueEv
libngraph.so.0.22:_ZNK6ngraph2op6ArgMin18copy_with_new_argsERKSt6vectorISt10shared_ptrINS_4NodeEESaIS5_EE
libngraph.so.0.22:_ZNK6ngraph2op6Concat18copy_with_new_argsERKSt6vectorISt10shared_ptrINS_4NodeEESaIS5_EE
libngraph.so.0.22:_ZNK6ngraph2op6Divide18copy_with_new_argsERKSt6vectorISt10shared_ptrINS_4NodeEESaIS5_EE
libngraph.so.0.22:_ZNK6ngraph2op6DynPad18copy_with_new_argsERKSt6vectorISt10shared_ptrINS_4NodeEESaIS5_EE
libngraph.so.0.22:_ZNK6ngraph2op6Gather18copy_with_new_argsERKSt6vectorISt10shared_ptrINS_4NodeEESaIS5_EE
libngraph.so.0.22:_ZNK6ngraph2op6LessEq18copy_with_new_argsERKSt6vectorISt10shared_ptrINS_4NodeEESaIS5_EE
libngraph.so.0.22:_ZNK6ngraph2op6OneHot18copy_with_new_argsERKSt6vectorISt10shared_ptrINS_4NodeEESaIS5_EE
libngraph.so.0.22:_ZNK6ngraph2op6Result18copy_with_new_argsERKSt6vectorISt10shared_ptrINS_4NodeEESaIS5_EE
libngraph.so.0.22:_ZNK6ngraph2op6Select18copy_with_new_argsERKSt6vectorISt10shared_ptrINS_4NodeEESaIS5_EE
libngraph.so.0.22:_ZNK6ngraph2op7AvgPool12get_pad_typeEv
libngraph.so.0.22:_ZNK6ngraph2op7AvgPool13get_ceil_modeEv
libngraph.so.0.22:_ZNK6ngraph2op7AvgPool16get_window_shapeEv
libngraph.so.0.22:_ZNK6ngraph2op7AvgPool17get_padding_aboveEv
libngraph.so.0.22:_ZNK6ngraph2op7AvgPool17get_padding_belowEv
libngraph.so.0.22:_ZNK6ngraph2op7AvgPool18copy_with_new_argsERKSt6vectorISt10shared_ptrINS_4NodeEESaIS5_EE
libngraph.so.0.22:_ZNK6ngraph2op7AvgPool27get_window_movement_stridesEv
libngraph.so.0.22:_ZNK6ngraph2op7AvgPool38get_include_padding_in_avg_computationEv
libngraph.so.0.22:_ZNK6ngraph2op7Ceiling18copy_with_new_argsERKSt6vectorISt10shared_ptrINS_4NodeEESaIS5_EE
libngraph.so.0.22:_ZNK6ngraph2op7Convert18copy_with_new_argsERKSt6vectorISt10shared_ptrINS_4NodeEESaIS5_EE
libngraph.so.0.22:_ZNK6ngraph2op7Greater18copy_with_new_argsERKSt6vectorISt10shared_ptrINS_4NodeEESaIS5_EE
libngraph.so.0.22:_ZNK6ngraph2op7MaxPool18copy_with_new_argsERKSt6vectorISt10shared_ptrINS_4NodeEESaIS5_EE
libngraph.so.0.22:_ZNK6ngraph2op7Maximum18copy_with_new_argsERKSt6vectorISt10shared_ptrINS_4NodeEESaIS5_EE
libngraph.so.0.22:_ZNK6ngraph2op7Minimum18copy_with_new_argsERKSt6vectorISt10shared_ptrINS_4NodeEESaIS5_EE
libngraph.so.0.22:_ZNK6ngraph2op7Product18copy_with_new_argsERKSt6vectorISt10shared_ptrINS_4NodeEESaIS5_EE
libngraph.so.0.22:_ZNK6ngraph2op7Reshape18copy_with_new_argsERKSt6vectorISt10shared_ptrINS_4NodeEESaIS5_EE
libngraph.so.0.22:_ZNK6ngraph2op7Reverse18copy_with_new_argsERKSt6vectorISt10shared_ptrINS_4NodeEESaIS5_EE
libngraph.so.0.22:_ZNK6ngraph2op7ShapeOf18copy_with_new_argsERKSt6vectorISt10shared_ptrINS_4NodeEESaIS5_EE
libngraph.so.0.22:_ZNK6ngraph2op7Sigmoid18copy_with_new_argsERKSt6vectorISt10shared_ptrINS_4NodeEESaIS5_EE
libngraph.so.0.22:_ZNK6ngraph2op7Softmax18copy_with_new_argsERKSt6vectorISt10shared_ptrINS_4NodeEESaIS5_EE
libngraph.so.0.22:_ZNK6ngraph2op7Squeeze12decompose_opEv
libngraph.so.0.22:_ZNK6ngraph2op7Squeeze18copy_with_new_argsERKSt6vectorISt10shared_ptrINS_4NodeEESaIS5_EE
libngraph.so.0.22:_ZNK6ngraph2op8Constant13get_shape_valEv
libngraph.so.0.22:_ZNK6ngraph2op8Constant15get_strides_valEv
libngraph.so.0.22:_ZNK6ngraph2op8Constant16get_axis_set_valEv
libngraph.so.0.22:_ZNK6ngraph2op8Constant17get_value_stringsB5cxx11Ev
libngraph.so.0.22:_ZNK6ngraph2op8Constant18copy_with_new_argsERKSt6vectorISt10shared_ptrINS_4NodeEESaIS5_EE
libngraph.so.0.22:_ZNK6ngraph2op8Constant18get_coordinate_valEv
libngraph.so.0.22:_ZNK6ngraph2op8Constant19get_axis_vector_valEv
libngraph.so.0.22:_ZNK6ngraph2op8Constant23convert_value_to_stringB5cxx11Em
libngraph.so.0.22:_ZNK6ngraph2op8Constant23get_coordinate_diff_valEv
libngraph.so.0.22:_ZNK6ngraph2op8Constant39are_all_data_elements_bitwise_identicalEv
libngraph.so.0.22:_ZNK6ngraph2op8DynSlice18copy_with_new_argsERKSt6vectorISt10shared_ptrINS_4NodeEESaIS5_EE
libngraph.so.0.22:_ZNK6ngraph2op8DynSlice20compute_output_shapeEv
libngraph.so.0.22:_ZNK6ngraph2op8GatherND18copy_with_new_argsERKSt6vectorISt10shared_ptrINS_4NodeEESaIS5_EE
libngraph.so.0.22:_ZNK6ngraph2op8Multiply18copy_with_new_argsERKSt6vectorISt10shared_ptrINS_4NodeEESaIS5_EE
libngraph.so.0.22:_ZNK6ngraph2op8Negative18copy_with_new_argsERKSt6vectorISt10shared_ptrINS_4NodeEESaIS5_EE
libngraph.so.0.22:_ZNK6ngraph2op8NotEqual18copy_with_new_argsERKSt6vectorISt10shared_ptrINS_4NodeEESaIS5_EE
libngraph.so.0.22:_ZNK6ngraph2op8PriorBox18copy_with_new_argsERKSt6vectorISt10shared_ptrINS_4NodeEESaIS5_EE
libngraph.so.0.22:_ZNK6ngraph2op8Proposal18copy_with_new_argsERKSt6vectorISt10shared_ptrINS_4NodeEESaIS5_EE
libngraph.so.0.22:_ZNK6ngraph2op8Quantize18copy_with_new_argsERKSt6vectorISt10shared_ptrINS_4NodeEESaIS5_EE
libngraph.so.0.22:_ZNK6ngraph2op8Subtract18copy_with_new_argsERKSt6vectorISt10shared_ptrINS_4NodeEESaIS5_EE
libngraph.so.0.22:_ZNK6ngraph2op9AllReduce18copy_with_new_argsERKSt6vectorISt10shared_ptrINS_4NodeEESaIS5_EE
libngraph.so.0.22:_ZNK6ngraph2op9Broadcast18copy_with_new_argsERKSt6vectorISt10shared_ptrINS_4NodeEESaIS5_EE
libngraph.so.0.22:_ZNK6ngraph2op9GreaterEq18copy_with_new_argsERKSt6vectorISt10shared_ptrINS_4NodeEESaIS5_EE
libngraph.so.0.22:_ZNK6ngraph2op9LeakyRelu12decompose_opEv
libngraph.so.0.22:_ZNK6ngraph2op9LeakyRelu18copy_with_new_argsERKSt6vectorISt10shared_ptrINS_4NodeEESaIS5_EE
libngraph.so.0.22:_ZNK6ngraph2op9Normalize12decompose_opEv
libngraph.so.0.22:_ZNK6ngraph2op9Normalize18copy_with_new_argsERKSt6vectorISt10shared_ptrINS_4NodeEESaIS5_EE
libngraph.so.0.22:_ZNK6ngraph2op9Parameter18copy_with_new_argsERKSt6vectorISt10shared_ptrINS_4NodeEESaIS5_EE
libngraph.so.0.22:_ZNK6ngraph2op9Parameter21is_relevant_to_shapesEv
libngraph.so.0.22:_ZNK6ngraph2op9ReorgYolo18copy_with_new_argsERKSt6vectorISt10shared_ptrINS_4NodeEESaIS5_EE
libngraph.so.0.22:_ZNK6ngraph2op9Transpose18copy_with_new_argsERKSt6vectorISt10shared_ptrINS_4NodeEESaIS5_EE
libngraph.so.0.22:_ZNK6ngraph2op9Unsqueeze12decompose_opEv
libngraph.so.0.22:_ZNK6ngraph2op9Unsqueeze18copy_with_new_argsERKSt6vectorISt10shared_ptrINS_4NodeEESaIS5_EE
libngraph.so.0.22:_ZNK6ngraph4Node10is_dynamicEv
libngraph.so.0.22:_ZNK6ngraph4Node11descriptionB5cxx11Ev
libngraph.so.0.22:_ZNK6ngraph4Node11get_outputsEv
libngraph.so.0.22:_ZNK6ngraph4Node11is_constantEv
libngraph.so.0.22:_ZNK6ngraph4Node12get_argumentEm
libngraph.so.0.22:_ZNK6ngraph4Node12is_parameterEv
libngraph.so.0.22:_ZNK6ngraph4Node13get_argumentsEv
libngraph.so.0.22:_ZNK6ngraph4Node13get_functionsEv
libngraph.so.0.22:_ZNK6ngraph4Node13get_placementEv
libngraph.so.0.22:_ZNK6ngraph4Node13has_same_typeESt10shared_ptrIKS0_E
libngraph.so.0.22:_ZNK6ngraph4Node14get_input_sizeEv
libngraph.so.0.22:_ZNK6ngraph4Node15get_input_shapeEm
libngraph.so.0.22:_ZNK6ngraph4Node15get_output_sizeEv
libngraph.so.0.22:_ZNK6ngraph4Node16get_element_typeEv
libngraph.so.0.22:_ZNK6ngraph4Node16get_output_shapeEm
libngraph.so.0.22:_ZNK6ngraph4Node17get_friendly_nameB5cxx11Ev
libngraph.so.0.22:_ZNK6ngraph4Node17get_output_inputsEm
libngraph.so.0.22:_ZNK6ngraph4Node17get_output_tensorEm
libngraph.so.0.22:_ZNK6ngraph4Node17get_output_tensorEv
libngraph.so.0.22:_ZNK6ngraph4Node19get_placement_indexEv
libngraph.so.0.22:_ZNK6ngraph4Node19get_provenance_tagsB5cxx11Ev
libngraph.so.0.22:_ZNK6ngraph4Node21get_input_tensor_nameB5cxx11Em
libngraph.so.0.22:_ZNK6ngraph4Node21get_output_tensor_ptrEm
libngraph.so.0.22:_ZNK6ngraph4Node21get_output_tensor_ptrEv
libngraph.so.0.22:_ZNK6ngraph4Node22get_input_element_typeEm
libngraph.so.0.22:_ZNK6ngraph4Node22get_output_tensor_nameB5cxx11Em
libngraph.so.0.22:_ZNK6ngraph4Node22write_long_descriptionERSo
libngraph.so.0.22:_ZNK6ngraph4Node23get_input_partial_shapeEm
libngraph.so.0.22:_ZNK6ngraph4Node23get_output_element_typeEm
libngraph.so.0.22:_ZNK6ngraph4Node23write_short_descriptionERSo
libngraph.so.0.22:_ZNK6ngraph4Node24get_control_dependenciesEv
libngraph.so.0.22:_ZNK6ngraph4Node24get_output_partial_shapeEm
libngraph.so.0.22:_ZNK6ngraph4Node8get_nameB5cxx11Ev
libngraph.so.0.22:_ZNK6ngraph4Node9get_shapeEv
libngraph.so.0.22:_ZNK6ngraph4Node9get_usersEb
libngraph.so.0.22:_ZNK6ngraph4Node9is_outputEv
libngraph.so.0.22:_ZNK6ngraph4cpio8FileInfo10get_offsetEv
libngraph.so.0.22:_ZNK6ngraph4cpio8FileInfo8get_nameB5cxx11Ev
libngraph.so.0.22:_ZNK6ngraph4cpio8FileInfo8get_sizeEv
libngraph.so.0.22:_ZNK6ngraph4pass10PassConfig15get_pass_enableERKNSt7__cxx1112basic_stringIcSt11char_traitsIcESaIcEEE
libngraph.so.0.22:_ZNK6ngraph4pass10PassConfig18get_pass_attributeERKNSt7__cxx1112basic_stringIcSt11char_traitsIcESaIcEEE
libngraph.so.0.22:_ZNK6ngraph4pass12GraphRewrite10is_enabledERKSt10shared_ptrINS_7pattern7MatcherEE
libngraph.so.0.22:_ZNK6ngraph4pass13VisualizeTree6renderEv
libngraph.so.0.22:_ZNK6ngraph4pass8PassBase12get_propertyERKNS_8EnumMaskINS0_12PassPropertyEEE
libngraph.so.0.22:_ZNK6ngraph7builder33autobroadcast_incompatible_shapes10get_shape1Ev
libngraph.so.0.22:_ZNK6ngraph7builder33autobroadcast_incompatible_shapes10get_shape2Ev
libngraph.so.0.22:_ZNK6ngraph7element4Type10compatibleERKS1_
libngraph.so.0.22:_ZNK6ngraph7element4Type12is_quantizedEv
libngraph.so.0.22:_ZNK6ngraph7element4Type13c_type_stringB5cxx11Ev
libngraph.so.0.22:_ZNK6ngraph7element4Type13get_type_nameB5cxx11Ev
libngraph.so.0.22:_ZNK6ngraph7element4Type4hashEv
libngraph.so.0.22:_ZNK6ngraph7element4Type4sizeEv
libngraph.so.0.22:_ZNK6ngraph7element4Type7is_realEv
libngraph.so.0.22:_ZNK6ngraph7element4Type8bitwidthEv
libngraph.so.0.22:_ZNK6ngraph7element4Type9is_signedEv
libngraph.so.0.22:_ZNK6ngraph7element4Type9is_staticEv
libngraph.so.0.22:_ZNK6ngraph7element4TypeeqERKS1_
libngraph.so.0.22:_ZNK6ngraph7element4TypeltERKS1_
libngraph.so.0.22:_ZNK6ngraph7float164sizeEv
libngraph.so.0.22:_ZNK6ngraph7float167to_bitsEv
libngraph.so.0.22:_ZNK6ngraph7float169to_stringB5cxx11Ev
libngraph.so.0.22:_ZNK6ngraph7float16cvfEv
libngraph.so.0.22:_ZNK6ngraph7float16eqERKS0_
libngraph.so.0.22:_ZNK6ngraph7float16geERKS0_
libngraph.so.0.22:_ZNK6ngraph7float16gtERKS0_
libngraph.so.0.22:_ZNK6ngraph7float16leERKS0_
libngraph.so.0.22:_ZNK6ngraph7float16ltERKS0_
libngraph.so.0.22:_ZNK6ngraph7runtime10Executable11get_resultsEv
libngraph.so.0.22:_ZNK6ngraph7runtime10Executable14get_parametersEv
libngraph.so.0.22:_ZNK6ngraph7runtime10Executable20get_performance_dataEv
libngraph.so.0.22:_ZNK6ngraph7runtime10HostTensor12get_data_ptrEv
libngraph.so.0.22:_ZNK6ngraph7runtime10HostTensor4readEPvm
libngraph.so.0.22:_ZNK6ngraph7runtime6Tensor11get_stridesEv
libngraph.so.0.22:_ZNK6ngraph7runtime6Tensor16get_element_typeEv
libngraph.so.0.22:_ZNK6ngraph7runtime6Tensor17get_element_countEv
libngraph.so.0.22:_ZNK6ngraph7runtime6Tensor17get_partial_shapeEv
libngraph.so.0.22:_ZNK6ngraph7runtime6Tensor17get_size_in_bytesEv
libngraph.so.0.22:_ZNK6ngraph7runtime6Tensor17get_tensor_layoutEv
libngraph.so.0.22:_ZNK6ngraph7runtime6Tensor8get_nameB5cxx11Ev
libngraph.so.0.22:_ZNK6ngraph7runtime6Tensor9get_shapeEv
libngraph.so.0.22:_ZNK6ngraph7runtime6Tensor9get_staleEv
libngraph.so.0.22:_ZNK6ngraph7runtime7Backend12is_supportedERKNS_4NodeE
libngraph.so.0.22:_ZNK6ngraph7runtime7Backend21is_supported_propertyENS1_8PropertyE
libngraph.so.0.22:_ZNK6ngraph7runtime7dynamic13DynamicTensor11get_stridesEv
libngraph.so.0.22:_ZNK6ngraph7runtime7dynamic13DynamicTensor11has_storageEv
libngraph.so.0.22:_ZNK6ngraph7runtime7dynamic13DynamicTensor16get_element_typeEv
libngraph.so.0.22:_ZNK6ngraph7runtime7dynamic13DynamicTensor17get_element_countEv
libngraph.so.0.22:_ZNK6ngraph7runtime7dynamic13DynamicTensor17get_size_in_bytesEv
libngraph.so.0.22:_ZNK6ngraph7runtime7dynamic13DynamicTensor18get_wrapped_tensorEv
libngraph.so.0.22:_ZNK6ngraph7runtime7dynamic13DynamicTensor4readEPvm
libngraph.so.0.22:_ZNK6ngraph7runtime7dynamic13DynamicTensor9get_shapeEv
libngraph.so.0.22:_ZNK6ngraph8Function10get_resultEv
libngraph.so.0.22:_ZNK6ngraph8Function10is_dynamicEv
libngraph.so.0.22:_ZNK6ngraph8Function13get_output_opEm
libngraph.so.0.22:_ZNK6ngraph8Function13get_placementEv
libngraph.so.0.22:_ZNK6ngraph8Function14get_graph_sizeEv
libngraph.so.0.22:_ZNK6ngraph8Function15get_ordered_opsB5cxx11Eb
libngraph.so.0.22:_ZNK6ngraph8Function15get_output_sizeEv
libngraph.so.0.22:_ZNK6ngraph8Function16get_output_shapeEm
libngraph.so.0.22:_ZNK6ngraph8Function17get_friendly_nameB5cxx11Ev
libngraph.so.0.22:_ZNK6ngraph8Function23get_output_element_typeEm
libngraph.so.0.22:_ZNK6ngraph8Function24get_output_partial_shapeEm
libngraph.so.0.22:_ZNK6ngraph8Function7get_opsB5cxx11Eb
libngraph.so.0.22:_ZNK6ngraph8Function8get_nameB5cxx11Ev
libngraph.so.0.22:_ZNK6ngraph8bfloat164sizeEv
libngraph.so.0.22:_ZNK6ngraph8bfloat167to_bitsEv
libngraph.so.0.22:_ZNK6ngraph8bfloat169to_stringB5cxx11Ev
libngraph.so.0.22:_ZNK6ngraph8bfloat16cvfEv
libngraph.so.0.22:_ZNK6ngraph8bfloat16eqERKS0_
libngraph.so.0.22:_ZNK6ngraph8bfloat16geERKS0_
libngraph.so.0.22:_ZNK6ngraph8bfloat16gtERKS0_
libngraph.so.0.22:_ZNK6ngraph8bfloat16leERKS0_
libngraph.so.0.22:_ZNK6ngraph8bfloat16ltERKS0_
libngraph.so.0.22:_ZNK6ngraph9Dimension10compatibleERKS0_
libngraph.so.0.22:_ZNK6ngraph9Dimension7refinesERKS0_
libngraph.so.0.22:_ZNK6ngraph9Dimension7relaxesERKS0_
libngraph.so.0.22:_ZNK6ngraph9DimensionmiERKS0_
libngraph.so.0.22:_ZNK6ngraph9DimensionmlERKS0_
libngraph.so.0.22:_ZNK6ngraph9DimensionplERKS0_
libngraph.so.0.22:_ZNK6ngraph9stopwatch11get_secondsEv
libngraph.so.0.22:_ZNK6ngraph9stopwatch14get_call_countEv
libngraph.so.0.22:_ZNK6ngraph9stopwatch15get_nanosecondsEv
libngraph.so.0.22:_ZNK6ngraph9stopwatch15get_timer_valueEv
libngraph.so.0.22:_ZNK6ngraph9stopwatch16get_microsecondsEv
libngraph.so.0.22:_ZNK6ngraph9stopwatch16get_millisecondsEv
libngraph.so.0.22:_ZNK6ngraph9stopwatch17get_total_secondsEv
libngraph.so.0.22:_ZNK6ngraph9stopwatch21get_total_nanosecondsEv
libngraph.so.0.22:_ZNK6ngraph9stopwatch22get_total_microsecondsEv
libngraph.so.0.22:_ZNK6ngraph9stopwatch22get_total_millisecondsEv
libngraph.so.0.22:_ZNSt14_Function_base13_Base_managerINSt8__detail11_AnyMatcherINSt7__cxx1112regex_traitsIcEELb0ELb0ELb0EEEE10_M_managerERSt9_Any_dataRKS8_St18_Manager_operation
libngraph.so.0.22:_ZNSt14_Function_base13_Base_managerINSt8__detail11_AnyMatcherINSt7__cxx1112regex_traitsIcEELb0ELb0ELb1EEEE10_M_managerERSt9_Any_dataRKS8_St18_Manager_operation
libngraph.so.0.22:_ZNSt14_Function_base13_Base_managerINSt8__detail11_AnyMatcherINSt7__cxx1112regex_traitsIcEELb0ELb1ELb0EEEE10_M_managerERSt9_Any_dataRKS8_St18_Manager_operation
libngraph.so.0.22:_ZNSt14_Function_base13_Base_managerINSt8__detail11_AnyMatcherINSt7__cxx1112regex_traitsIcEELb0ELb1ELb1EEEE10_M_managerERSt9_Any_dataRKS8_St18_Manager_operation
libngraph.so.0.22:_ZNSt14_Function_base13_Base_managerINSt8__detail11_AnyMatcherINSt7__cxx1112regex_traitsIcEELb1ELb0ELb0EEEE10_M_managerERSt9_Any_dataRKS8_St18_Manager_operation
libngraph.so.0.22:_ZNSt14_Function_base13_Base_managerINSt8__detail11_AnyMatcherINSt7__cxx1112regex_traitsIcEELb1ELb0ELb1EEEE10_M_managerERSt9_Any_dataRKS8_St18_Manager_operation
libngraph.so.0.22:_ZNSt14_Function_base13_Base_managerINSt8__detail11_AnyMatcherINSt7__cxx1112regex_traitsIcEELb1ELb1ELb0EEEE10_M_managerERSt9_Any_dataRKS8_St18_Manager_operation
libngraph.so.0.22:_ZNSt14_Function_base13_Base_managerINSt8__detail11_AnyMatcherINSt7__cxx1112regex_traitsIcEELb1ELb1ELb1EEEE10_M_managerERSt9_Any_dataRKS8_St18_Manager_operation
libngraph.so.0.22:_ZNSt14_Function_base13_Base_managerINSt8__detail12_CharMatcherINSt7__cxx1112regex_traitsIcEELb0ELb0EEEE10_M_managerERSt9_Any_dataRKS8_St18_Manager_operation
libngraph.so.0.22:_ZNSt14_Function_base13_Base_managerINSt8__detail12_CharMatcherINSt7__cxx1112regex_traitsIcEELb0ELb1EEEE10_M_managerERSt9_Any_dataRKS8_St18_Manager_operation
libngraph.so.0.22:_ZNSt14_Function_base13_Base_managerINSt8__detail12_CharMatcherINSt7__cxx1112regex_traitsIcEELb1ELb0EEEE10_M_managerERSt9_Any_dataRKS8_St18_Manager_operation
libngraph.so.0.22:_ZNSt14_Function_base13_Base_managerINSt8__detail12_CharMatcherINSt7__cxx1112regex_traitsIcEELb1ELb1EEEE10_M_managerERSt9_Any_dataRKS8_St18_Manager_operation
libngraph.so.0.22:_ZNSt14_Function_base13_Base_managerINSt8__detail15_BracketMatcherINSt7__cxx1112regex_traitsIcEELb0ELb0EEEE10_M_managerERSt9_Any_dataRKS8_St18_Manager_operation
libngraph.so.0.22:_ZNSt14_Function_base13_Base_managerINSt8__detail15_BracketMatcherINSt7__cxx1112regex_traitsIcEELb0ELb1EEEE10_M_managerERSt9_Any_dataRKS8_St18_Manager_operation
libngraph.so.0.22:_ZNSt14_Function_base13_Base_managerINSt8__detail15_BracketMatcherINSt7__cxx1112regex_traitsIcEELb1ELb0EEEE10_M_managerERSt9_Any_dataRKS8_St18_Manager_operation
libngraph.so.0.22:_ZNSt14_Function_base13_Base_managerINSt8__detail15_BracketMatcherINSt7__cxx1112regex_traitsIcEELb1ELb1EEEE10_M_managerERSt9_Any_dataRKS8_St18_Manager_operation
libngraph.so.0.22:_ZNSt14_Function_base13_Base_managerIPFPN6ngraph7runtime18BackendConstructorEvEE10_M_managerERSt9_Any_dataRKS8_St18_Manager_operation
libngraph.so.0.22:_ZNSt14_Function_base13_Base_managerIPFbRKSt10shared_ptrIN6ngraph4NodeEEEE10_M_managerERSt9_Any_dataRKSA_St18_Manager_operation
libngraph.so.0.22:_ZNSt14_Function_base13_Base_managerIPFbSt10shared_ptrIN6ngraph4NodeEEEE10_M_managerERSt9_Any_dataRKS8_St18_Manager_operation
libngraph.so.0.22:_ZNSt14_Function_base13_Base_managerIPFbSt10shared_ptrIN6ngraph4NodeEES4_EE10_M_managerERSt9_Any_dataRKS8_St18_Manager_operation
libngraph.so.0.22:_ZNSt14_Function_base13_Base_managerIPFvRKNSt7__cxx1112basic_stringIcSt11char_traitsIcESaIcEEEEE10_M_managerERSt9_Any_dataRKSC_St18_Manager_operation
libngraph.so.0.22:_ZNSt14_Function_base13_Base_managerIZN6ngraph7pattern9has_classINS1_2op4util26UnaryElementwiseArithmeticEEESt8functionIFbSt10shared_ptrINS1_4NodeEEEEvEUlSA_E_E10_M_managerERSt9_Any_dataRKSF_St18_Manager_operation
libngraph.so.0.22:_ZNSt14_Function_base13_Base_managerIZN6ngraph7pattern9has_classINS1_2op4util27BinaryElementwiseArithmeticEEESt8functionIFbSt10shared_ptrINS1_4NodeEEEEvEUlSA_E_E10_M_managerERSt9_Any_dataRKSF_St18_Manager_operation
libngraph.so.0.22:_ZNSt14_Function_base13_Base_managerIZN6ngraph7pattern9has_classINS1_2op7ReshapeEEESt8functionIFbSt10shared_ptrINS1_4NodeEEEEvEUlS9_E_E10_M_managerERSt9_Any_dataRKSE_St18_Manager_operation
libngraph.so.0.22:_ZNSt14_Function_base13_Base_managerIZN6ngraph7pattern9has_classINS1_2op8ConstantEEESt8functionIFbSt10shared_ptrINS1_4NodeEEEEvEUlS9_E_E10_M_managerERSt9_Any_dataRKSE_St18_Manager_operation
libngraph.so.0.22:_ZNSt14_Function_base13_Base_managerIZN6ngraph7pattern9has_classINS1_2op9BroadcastEEESt8functionIFbSt10shared_ptrINS1_4NodeEEEEvEUlS9_E_E10_M_managerERSt9_Any_dataRKSE_St18_Manager_operation
libngraph.so.0.22:_ZNSt17_Function_handlerIFPN6ngraph7runtime18BackendConstructorEvEPS4_E9_M_invokeERKSt9_Any_data
libngraph.so.0.22:_ZNSt17_Function_handlerIFbRKSt10shared_ptrIN6ngraph4NodeEEEPS6_E9_M_invokeERKSt9_Any_dataS5_
libngraph.so.0.22:_ZNSt17_Function_handlerIFbSt10shared_ptrIN6ngraph4NodeEEEPS4_E9_M_invokeERKSt9_Any_dataOS3_
libngraph.so.0.22:_ZNSt17_Function_handlerIFbSt10shared_ptrIN6ngraph4NodeEEEZNS1_7pattern9has_classINS1_2op4util26UnaryElementwiseArithmeticEEESt8functionIS4_EvEUlS3_E_E9_M_invokeERKSt9_Any_dataOS3_
libngraph.so.0.22:_ZNSt17_Function_handlerIFbSt10shared_ptrIN6ngraph4NodeEEEZNS1_7pattern9has_classINS1_2op4util27BinaryElementwiseArithmeticEEESt8functionIS4_EvEUlS3_E_E9_M_invokeERKSt9_Any_dataOS3_
libngraph.so.0.22:_ZNSt17_Function_handlerIFbSt10shared_ptrIN6ngraph4NodeEEEZNS1_7pattern9has_classINS1_2op7ReshapeEEESt8functionIS4_EvEUlS3_E_E9_M_invokeERKSt9_Any_dataOS3_
libngraph.so.0.22:_ZNSt17_Function_handlerIFbSt10shared_ptrIN6ngraph4NodeEEEZNS1_7pattern9has_classINS1_2op8ConstantEEESt8functionIS4_EvEUlS3_E_E9_M_invokeERKSt9_Any_dataOS3_
libngraph.so.0.22:_ZNSt17_Function_handlerIFbSt10shared_ptrIN6ngraph4NodeEEEZNS1_7pattern9has_classINS1_2op9BroadcastEEESt8functionIS4_EvEUlS3_E_E9_M_invokeERKSt9_Any_dataOS3_
libngraph.so.0.22:_ZNSt17_Function_handlerIFbSt10shared_ptrIN6ngraph4NodeEES3_EPS4_E9_M_invokeERKSt9_Any_dataOS3_SA_
libngraph.so.0.22:_ZNSt17_Function_handlerIFbcENSt8__detail11_AnyMatcherINSt7__cxx1112regex_traitsIcEELb0ELb0ELb0EEEE9_M_invokeERKSt9_Any_dataOc
libngraph.so.0.22:_ZNSt17_Function_handlerIFbcENSt8__detail11_AnyMatcherINSt7__cxx1112regex_traitsIcEELb0ELb0ELb1EEEE9_M_invokeERKSt9_Any_dataOc
libngraph.so.0.22:_ZNSt17_Function_handlerIFbcENSt8__detail11_AnyMatcherINSt7__cxx1112regex_traitsIcEELb0ELb1ELb0EEEE9_M_invokeERKSt9_Any_dataOc
libngraph.so.0.22:_ZNSt17_Function_handlerIFbcENSt8__detail11_AnyMatcherINSt7__cxx1112regex_traitsIcEELb0ELb1ELb1EEEE9_M_invokeERKSt9_Any_dataOc
libngraph.so.0.22:_ZNSt17_Function_handlerIFbcENSt8__detail11_AnyMatcherINSt7__cxx1112regex_traitsIcEELb1ELb0ELb0EEEE9_M_invokeERKSt9_Any_dataOc
libngraph.so.0.22:_ZNSt17_Function_handlerIFbcENSt8__detail11_AnyMatcherINSt7__cxx1112regex_traitsIcEELb1ELb0ELb1EEEE9_M_invokeERKSt9_Any_dataOc
libngraph.so.0.22:_ZNSt17_Function_handlerIFbcENSt8__detail11_AnyMatcherINSt7__cxx1112regex_traitsIcEELb1ELb1ELb0EEEE9_M_invokeERKSt9_Any_dataOc
libngraph.so.0.22:_ZNSt17_Function_handlerIFbcENSt8__detail11_AnyMatcherINSt7__cxx1112regex_traitsIcEELb1ELb1ELb1EEEE9_M_invokeERKSt9_Any_dataOc
libngraph.so.0.22:_ZNSt17_Function_handlerIFbcENSt8__detail12_CharMatcherINSt7__cxx1112regex_traitsIcEELb0ELb0EEEE9_M_invokeERKSt9_Any_dataOc
libngraph.so.0.22:_ZNSt17_Function_handlerIFbcENSt8__detail12_CharMatcherINSt7__cxx1112regex_traitsIcEELb0ELb1EEEE9_M_invokeERKSt9_Any_dataOc
libngraph.so.0.22:_ZNSt17_Function_handlerIFbcENSt8__detail12_CharMatcherINSt7__cxx1112regex_traitsIcEELb1ELb0EEEE9_M_invokeERKSt9_Any_dataOc
libngraph.so.0.22:_ZNSt17_Function_handlerIFbcENSt8__detail12_CharMatcherINSt7__cxx1112regex_traitsIcEELb1ELb1EEEE9_M_invokeERKSt9_Any_dataOc
libngraph.so.0.22:_ZNSt17_Function_handlerIFbcENSt8__detail15_BracketMatcherINSt7__cxx1112regex_traitsIcEELb0ELb0EEEE9_M_invokeERKSt9_Any_dataOc
libngraph.so.0.22:_ZNSt17_Function_handlerIFbcENSt8__detail15_BracketMatcherINSt7__cxx1112regex_traitsIcEELb0ELb1EEEE9_M_invokeERKSt9_Any_dataOc
libngraph.so.0.22:_ZNSt17_Function_handlerIFbcENSt8__detail15_BracketMatcherINSt7__cxx1112regex_traitsIcEELb1ELb0EEEE9_M_invokeERKSt9_Any_dataOc
libngraph.so.0.22:_ZNSt17_Function_handlerIFbcENSt8__detail15_BracketMatcherINSt7__cxx1112regex_traitsIcEELb1ELb1EEEE9_M_invokeERKSt9_Any_dataOc
libngraph.so.0.22:_ZNSt17_Function_handlerIFvRKNSt7__cxx1112basic_stringIcSt11char_traitsIcESaIcEEEEPS8_E9_M_invokeERKSt9_Any_dataS7_
libngraph.so.0.22:_ZNSt8__detail8_ScannerIcE18_M_eat_escape_ecmaEv
libngraph.so.0.22:_ZNSt8__detail8_ScannerIcE19_M_eat_escape_posixEv
libngraph.so.0.22:_ZlsRSoRKN6ngraph10descriptor6TensorE
libngraph.so.0.22:_ZlsRSoRKN6ngraph8FunctionE
libngraph.so.0.22:_ZlsRSoRKSt6vectorISt10shared_ptrIN6ngraph4NodeEESaIS4_EE
libngraph.so.0.22:get_ngraph_version_string
